00000000  7F45              jg 0x47
00000002  4C                dec sp
00000003  46                inc si
00000004  0201              add al,[bx+di]
00000006  0100              add [bx+si],ax
00000008  0000              add [bx+si],al
0000000A  0000              add [bx+si],al
0000000C  0000              add [bx+si],al
0000000E  0000              add [bx+si],al
00000010  0300              add ax,[bx+si]
00000012  3E0001            add [ds:bx+di],al
00000015  0000              add [bx+si],al
00000017  0030              add [bx+si],dh
00000019  050000            add ax,0x0
0000001C  0000              add [bx+si],al
0000001E  0000              add [bx+si],al
00000020  40                inc ax
00000021  0000              add [bx+si],al
00000023  0000              add [bx+si],al
00000025  0000              add [bx+si],al
00000027  0030              add [bx+si],dh
00000029  2200              and al,[bx+si]
0000002B  0000              add [bx+si],al
0000002D  0000              add [bx+si],al
0000002F  0000              add [bx+si],al
00000031  0000              add [bx+si],al
00000033  004000            add [bx+si+0x0],al
00000036  3800              cmp [bx+si],al
00000038  0900              or [bx+si],ax
0000003A  40                inc ax
0000003B  0022              add [bp+si],ah
0000003D  0021              add [bx+di],ah
0000003F  00060000          add [0x0],al
00000043  0004              add [si],al
00000045  0000              add [bx+si],al
00000047  004000            add [bx+si+0x0],al
0000004A  0000              add [bx+si],al
0000004C  0000              add [bx+si],al
0000004E  0000              add [bx+si],al
00000050  40                inc ax
00000051  0000              add [bx+si],al
00000053  0000              add [bx+si],al
00000055  0000              add [bx+si],al
00000057  004000            add [bx+si+0x0],al
0000005A  0000              add [bx+si],al
0000005C  0000              add [bx+si],al
0000005E  0000              add [bx+si],al
00000060  F8                clc
00000061  0100              add [bx+si],ax
00000063  0000              add [bx+si],al
00000065  0000              add [bx+si],al
00000067  00F8              add al,bh
00000069  0100              add [bx+si],ax
0000006B  0000              add [bx+si],al
0000006D  0000              add [bx+si],al
0000006F  0008              add [bx+si],cl
00000071  0000              add [bx+si],al
00000073  0000              add [bx+si],al
00000075  0000              add [bx+si],al
00000077  0003              add [bp+di],al
00000079  0000              add [bx+si],al
0000007B  0004              add [si],al
0000007D  0000              add [bx+si],al
0000007F  0038              add [bx+si],bh
00000081  0200              add al,[bx+si]
00000083  0000              add [bx+si],al
00000085  0000              add [bx+si],al
00000087  0038              add [bx+si],bh
00000089  0200              add al,[bx+si]
0000008B  0000              add [bx+si],al
0000008D  0000              add [bx+si],al
0000008F  0038              add [bx+si],bh
00000091  0200              add al,[bx+si]
00000093  0000              add [bx+si],al
00000095  0000              add [bx+si],al
00000097  001C              add [si],bl
00000099  0000              add [bx+si],al
0000009B  0000              add [bx+si],al
0000009D  0000              add [bx+si],al
0000009F  001C              add [si],bl
000000A1  0000              add [bx+si],al
000000A3  0000              add [bx+si],al
000000A5  0000              add [bx+si],al
000000A7  0001              add [bx+di],al
000000A9  0000              add [bx+si],al
000000AB  0000              add [bx+si],al
000000AD  0000              add [bx+si],al
000000AF  0001              add [bx+di],al
000000B1  0000              add [bx+si],al
000000B3  0005              add [di],al
000000B5  0000              add [bx+si],al
000000B7  0000              add [bx+si],al
000000B9  0000              add [bx+si],al
000000BB  0000              add [bx+si],al
000000BD  0000              add [bx+si],al
000000BF  0000              add [bx+si],al
000000C1  0000              add [bx+si],al
000000C3  0000              add [bx+si],al
000000C5  0000              add [bx+si],al
000000C7  0000              add [bx+si],al
000000C9  0000              add [bx+si],al
000000CB  0000              add [bx+si],al
000000CD  0000              add [bx+si],al
000000CF  0028              add [bx+si],ch
000000D1  0800              or [bx+si],al
000000D3  0000              add [bx+si],al
000000D5  0000              add [bx+si],al
000000D7  0028              add [bx+si],ch
000000D9  0800              or [bx+si],al
000000DB  0000              add [bx+si],al
000000DD  0000              add [bx+si],al
000000DF  0000              add [bx+si],al
000000E1  0020              add [bx+si],ah
000000E3  0000              add [bx+si],al
000000E5  0000              add [bx+si],al
000000E7  0001              add [bx+di],al
000000E9  0000              add [bx+si],al
000000EB  00060000          add [0x0],al
000000EF  00E8              add al,ch
000000F1  0D0000            or ax,0x0
000000F4  0000              add [bx+si],al
000000F6  0000              add [bx+si],al
000000F8  E80D20            call 0x2108
000000FB  0000              add [bx+si],al
000000FD  0000              add [bx+si],al
000000FF  00E8              add al,ch
00000101  0D2000            or ax,0x20
00000104  0000              add [bx+si],al
00000106  0000              add [bx+si],al
00000108  48                dec ax
00000109  0200              add al,[bx+si]
0000010B  0000              add [bx+si],al
0000010D  0000              add [bx+si],al
0000010F  005002            add [bx+si+0x2],dl
00000112  0000              add [bx+si],al
00000114  0000              add [bx+si],al
00000116  0000              add [bx+si],al
00000118  0000              add [bx+si],al
0000011A  2000              and [bx+si],al
0000011C  0000              add [bx+si],al
0000011E  0000              add [bx+si],al
00000120  0200              add al,[bx+si]
00000122  0000              add [bx+si],al
00000124  06                push es
00000125  0000              add [bx+si],al
00000127  00F8              add al,bh
00000129  0D0000            or ax,0x0
0000012C  0000              add [bx+si],al
0000012E  0000              add [bx+si],al
00000130  F8                clc
00000131  0D2000            or ax,0x20
00000134  0000              add [bx+si],al
00000136  0000              add [bx+si],al
00000138  F8                clc
00000139  0D2000            or ax,0x20
0000013C  0000              add [bx+si],al
0000013E  0000              add [bx+si],al
00000140  E001              loopne 0x143
00000142  0000              add [bx+si],al
00000144  0000              add [bx+si],al
00000146  0000              add [bx+si],al
00000148  E001              loopne 0x14b
0000014A  0000              add [bx+si],al
0000014C  0000              add [bx+si],al
0000014E  0000              add [bx+si],al
00000150  0800              or [bx+si],al
00000152  0000              add [bx+si],al
00000154  0000              add [bx+si],al
00000156  0000              add [bx+si],al
00000158  0400              add al,0x0
0000015A  0000              add [bx+si],al
0000015C  0400              add al,0x0
0000015E  0000              add [bx+si],al
00000160  54                push sp
00000161  0200              add al,[bx+si]
00000163  0000              add [bx+si],al
00000165  0000              add [bx+si],al
00000167  005402            add [si+0x2],dl
0000016A  0000              add [bx+si],al
0000016C  0000              add [bx+si],al
0000016E  0000              add [bx+si],al
00000170  54                push sp
00000171  0200              add al,[bx+si]
00000173  0000              add [bx+si],al
00000175  0000              add [bx+si],al
00000177  004400            add [si+0x0],al
0000017A  0000              add [bx+si],al
0000017C  0000              add [bx+si],al
0000017E  0000              add [bx+si],al
00000180  44                inc sp
00000181  0000              add [bx+si],al
00000183  0000              add [bx+si],al
00000185  0000              add [bx+si],al
00000187  0004              add [si],al
00000189  0000              add [bx+si],al
0000018B  0000              add [bx+si],al
0000018D  0000              add [bx+si],al
0000018F  0050E5            add [bx+si-0x1b],dl
00000192  7464              jz 0x1f8
00000194  0400              add al,0x0
00000196  0000              add [bx+si],al
00000198  D8060000          fadd dword [0x0]
0000019C  0000              add [bx+si],al
0000019E  0000              add [bx+si],al
000001A0  D8060000          fadd dword [0x0]
000001A4  0000              add [bx+si],al
000001A6  0000              add [bx+si],al
000001A8  D8060000          fadd dword [0x0]
000001AC  0000              add [bx+si],al
000001AE  0000              add [bx+si],al
000001B0  3C00              cmp al,0x0
000001B2  0000              add [bx+si],al
000001B4  0000              add [bx+si],al
000001B6  0000              add [bx+si],al
000001B8  3C00              cmp al,0x0
000001BA  0000              add [bx+si],al
000001BC  0000              add [bx+si],al
000001BE  0000              add [bx+si],al
000001C0  0400              add al,0x0
000001C2  0000              add [bx+si],al
000001C4  0000              add [bx+si],al
000001C6  0000              add [bx+si],al
000001C8  51                push cx
000001C9  E574              in ax,0x74
000001CB  6406              fs push es
000001CD  0000              add [bx+si],al
000001CF  0000              add [bx+si],al
000001D1  0000              add [bx+si],al
000001D3  0000              add [bx+si],al
000001D5  0000              add [bx+si],al
000001D7  0000              add [bx+si],al
000001D9  0000              add [bx+si],al
000001DB  0000              add [bx+si],al
000001DD  0000              add [bx+si],al
000001DF  0000              add [bx+si],al
000001E1  0000              add [bx+si],al
000001E3  0000              add [bx+si],al
000001E5  0000              add [bx+si],al
000001E7  0000              add [bx+si],al
000001E9  0000              add [bx+si],al
000001EB  0000              add [bx+si],al
000001ED  0000              add [bx+si],al
000001EF  0000              add [bx+si],al
000001F1  0000              add [bx+si],al
000001F3  0000              add [bx+si],al
000001F5  0000              add [bx+si],al
000001F7  0010              add [bx+si],dl
000001F9  0000              add [bx+si],al
000001FB  0000              add [bx+si],al
000001FD  0000              add [bx+si],al
000001FF  0052E5            add [bp+si-0x1b],dl
00000202  7464              jz 0x268
00000204  0400              add al,0x0
00000206  0000              add [bx+si],al
00000208  E80D00            call 0x218
0000020B  0000              add [bx+si],al
0000020D  0000              add [bx+si],al
0000020F  00E8              add al,ch
00000211  0D2000            or ax,0x20
00000214  0000              add [bx+si],al
00000216  0000              add [bx+si],al
00000218  E80D20            call 0x2228
0000021B  0000              add [bx+si],al
0000021D  0000              add [bx+si],al
0000021F  0018              add [bx+si],bl
00000221  0200              add al,[bx+si]
00000223  0000              add [bx+si],al
00000225  0000              add [bx+si],al
00000227  0018              add [bx+si],bl
00000229  0200              add al,[bx+si]
0000022B  0000              add [bx+si],al
0000022D  0000              add [bx+si],al
0000022F  0001              add [bx+di],al
00000231  0000              add [bx+si],al
00000233  0000              add [bx+si],al
00000235  0000              add [bx+si],al
00000237  002F              add [bx],ch
00000239  6C                insb
0000023A  696236342F        imul sp,[bp+si+0x36],word 0x2f34
0000023F  6C                insb
00000240  642D6C69          fs sub ax,0x696c
00000244  6E                outsb
00000245  7578              jnz 0x2bf
00000247  2D7838            sub ax,0x3878
0000024A  362D3634          ss sub ax,0x3436
0000024E  2E736F            cs jnc 0x2c0
00000251  2E3200            xor al,[cs:bx+si]
00000254  0400              add al,0x0
00000256  0000              add [bx+si],al
00000258  1000              adc [bx+si],al
0000025A  0000              add [bx+si],al
0000025C  0100              add [bx+si],ax
0000025E  0000              add [bx+si],al
00000260  47                inc di
00000261  4E                dec si
00000262  55                push bp
00000263  0000              add [bx+si],al
00000265  0000              add [bx+si],al
00000267  0003              add [bp+di],al
00000269  0000              add [bx+si],al
0000026B  0002              add [bp+si],al
0000026D  0000              add [bx+si],al
0000026F  0000              add [bx+si],al
00000271  0000              add [bx+si],al
00000273  0004              add [si],al
00000275  0000              add [bx+si],al
00000277  0014              add [si],dl
00000279  0000              add [bx+si],al
0000027B  0003              add [bp+di],al
0000027D  0000              add [bx+si],al
0000027F  00474E            add [bx+0x4e],al
00000282  55                push bp
00000283  008D8C03          add [di+0x38c],cl
00000287  26CB              es retf
00000289  88BED3B2          mov [bp-0x4d2d],bh
0000028D  85A080A8          test [bx+si-0x5780],sp
00000291  9D                popf
00000292  80AC158FA2        sub byte [si-0x70eb],0xa2
00000297  0301              add ax,[bx+di]
00000299  0000              add [bx+si],al
0000029B  0001              add [bx+di],al
0000029D  0000              add [bx+si],al
0000029F  0001              add [bx+di],al
000002A1  0000              add [bx+si],al
000002A3  0000              add [bx+si],al
000002A5  0000              add [bx+si],al
000002A7  0000              add [bx+si],al
000002A9  0000              add [bx+si],al
000002AB  0000              add [bx+si],al
000002AD  0000              add [bx+si],al
000002AF  0000              add [bx+si],al
000002B1  0000              add [bx+si],al
000002B3  0000              add [bx+si],al
000002B5  0000              add [bx+si],al
000002B7  0000              add [bx+si],al
000002B9  0000              add [bx+si],al
000002BB  0000              add [bx+si],al
000002BD  0000              add [bx+si],al
000002BF  0000              add [bx+si],al
000002C1  0000              add [bx+si],al
000002C3  0000              add [bx+si],al
000002C5  0000              add [bx+si],al
000002C7  0000              add [bx+si],al
000002C9  0000              add [bx+si],al
000002CB  0000              add [bx+si],al
000002CD  0000              add [bx+si],al
000002CF  003F              add [bx],bh
000002D1  0000              add [bx+si],al
000002D3  0020              add [bx+si],ah
000002D5  0000              add [bx+si],al
000002D7  0000              add [bx+si],al
000002D9  0000              add [bx+si],al
000002DB  0000              add [bx+si],al
000002DD  0000              add [bx+si],al
000002DF  0000              add [bx+si],al
000002E1  0000              add [bx+si],al
000002E3  0000              add [bx+si],al
000002E5  0000              add [bx+si],al
000002E7  000B              add [bp+di],cl
000002E9  0000              add [bx+si],al
000002EB  0012              add [bp+si],dl
000002ED  0000              add [bx+si],al
000002EF  0000              add [bx+si],al
000002F1  0000              add [bx+si],al
000002F3  0000              add [bx+si],al
000002F5  0000              add [bx+si],al
000002F7  0000              add [bx+si],al
000002F9  0000              add [bx+si],al
000002FB  0000              add [bx+si],al
000002FD  0000              add [bx+si],al
000002FF  0021              add [bx+di],ah
00000301  0000              add [bx+si],al
00000303  0012              add [bp+si],dl
00000305  0000              add [bx+si],al
00000307  0000              add [bx+si],al
00000309  0000              add [bx+si],al
0000030B  0000              add [bx+si],al
0000030D  0000              add [bx+si],al
0000030F  0000              add [bx+si],al
00000311  0000              add [bx+si],al
00000313  0000              add [bx+si],al
00000315  0000              add [bx+si],al
00000317  005B00            add [bp+di+0x0],bl
0000031A  0000              add [bx+si],al
0000031C  2000              and [bx+si],al
0000031E  0000              add [bx+si],al
00000320  0000              add [bx+si],al
00000322  0000              add [bx+si],al
00000324  0000              add [bx+si],al
00000326  0000              add [bx+si],al
00000328  0000              add [bx+si],al
0000032A  0000              add [bx+si],al
0000032C  0000              add [bx+si],al
0000032E  0000              add [bx+si],al
00000330  6A00              push byte +0x0
00000332  0000              add [bx+si],al
00000334  2000              and [bx+si],al
00000336  0000              add [bx+si],al
00000338  0000              add [bx+si],al
0000033A  0000              add [bx+si],al
0000033C  0000              add [bx+si],al
0000033E  0000              add [bx+si],al
00000340  0000              add [bx+si],al
00000342  0000              add [bx+si],al
00000344  0000              add [bx+si],al
00000346  0000              add [bx+si],al
00000348  1200              adc al,[bx+si]
0000034A  0000              add [bx+si],al
0000034C  2200              and al,[bx+si]
0000034E  0000              add [bx+si],al
00000350  0000              add [bx+si],al
00000352  0000              add [bx+si],al
00000354  0000              add [bx+si],al
00000356  0000              add [bx+si],al
00000358  0000              add [bx+si],al
0000035A  0000              add [bx+si],al
0000035C  0000              add [bx+si],al
0000035E  0000              add [bx+si],al
00000360  006C69            add [si+0x69],ch
00000363  62632E            bound sp,[bp+di+0x2e]
00000366  736F              jnc 0x3d7
00000368  2E36007072        add [ss:bx+si+0x72],dh
0000036D  696E746600        imul bp,[bp+0x74],word 0x66
00000372  5F                pop di
00000373  5F                pop di
00000374  637861            arpl [bx+si+0x61],di
00000377  5F                pop di
00000378  66696E616C697A65  imul ebp,[bp+0x61],dword 0x657a696c
00000380  005F5F            add [bx+0x5f],bl
00000383  6C                insb
00000384  6962635F73        imul sp,[bp+si+0x63],word 0x735f
00000389  7461              jz 0x3ec
0000038B  7274              jc 0x401
0000038D  5F                pop di
0000038E  6D                insw
0000038F  61                popa
00000390  696E00474C        imul bp,[bp+0x0],word 0x4c47
00000395  49                dec cx
00000396  42                inc dx
00000397  43                inc bx
00000398  5F                pop di
00000399  322E322E          xor ch,[0x2e32]
0000039D  35005F            xor ax,0x5f00
000003A0  49                dec cx
000003A1  54                push sp
000003A2  4D                dec bp
000003A3  5F                pop di
000003A4  64657265          gs jc 0x40d
000003A8  676973746572      imul si,[ebx+0x74],word 0x7265
000003AE  54                push sp
000003AF  4D                dec bp
000003B0  43                inc bx
000003B1  6C                insb
000003B2  6F                outsw
000003B3  6E                outsb
000003B4  6554              gs push sp
000003B6  61                popa
000003B7  626C65            bound bp,[si+0x65]
000003BA  005F5F            add [bx+0x5f],bl
000003BD  676D              a32 insw
000003BF  6F                outsw
000003C0  6E                outsb
000003C1  5F                pop di
000003C2  7374              jnc 0x438
000003C4  61                popa
000003C5  7274              jc 0x43b
000003C7  5F                pop di
000003C8  5F                pop di
000003C9  005F49            add [bx+0x49],bl
000003CC  54                push sp
000003CD  4D                dec bp
000003CE  5F                pop di
000003CF  7265              jc 0x436
000003D1  676973746572      imul si,[ebx+0x74],word 0x7265
000003D7  54                push sp
000003D8  4D                dec bp
000003D9  43                inc bx
000003DA  6C                insb
000003DB  6F                outsw
000003DC  6E                outsb
000003DD  6554              gs push sp
000003DF  61                popa
000003E0  626C65            bound bp,[si+0x65]
000003E3  0000              add [bx+si],al
000003E5  0000              add [bx+si],al
000003E7  0002              add [bp+si],al
000003E9  0002              add [bp+si],al
000003EB  0000              add [bx+si],al
000003ED  0000              add [bx+si],al
000003EF  0002              add [bp+si],al
000003F1  0000              add [bx+si],al
000003F3  0000              add [bx+si],al
000003F5  0000              add [bx+si],al
000003F7  0001              add [bx+di],al
000003F9  0001              add [bx+di],al
000003FB  0001              add [bx+di],al
000003FD  0000              add [bx+si],al
000003FF  0010              add [bx+si],dl
00000401  0000              add [bx+si],al
00000403  0000              add [bx+si],al
00000405  0000              add [bx+si],al
00000407  00751A            add [di+0x1a],dh
0000040A  69090000          imul cx,[bx+di],word 0x0
0000040E  0200              add al,[bx+si]
00000410  3300              xor ax,[bx+si]
00000412  0000              add [bx+si],al
00000414  0000              add [bx+si],al
00000416  0000              add [bx+si],al
00000418  E80D20            call 0x2428
0000041B  0000              add [bx+si],al
0000041D  0000              add [bx+si],al
0000041F  0008              add [bx+si],cl
00000421  0000              add [bx+si],al
00000423  0000              add [bx+si],al
00000425  0000              add [bx+si],al
00000427  0010              add [bx+si],dl
00000429  06                push es
0000042A  0000              add [bx+si],al
0000042C  0000              add [bx+si],al
0000042E  0000              add [bx+si],al
00000430  F00D2000          lock or ax,0x20
00000434  0000              add [bx+si],al
00000436  0000              add [bx+si],al
00000438  0800              or [bx+si],al
0000043A  0000              add [bx+si],al
0000043C  0000              add [bx+si],al
0000043E  0000              add [bx+si],al
00000440  D005              rol byte [di],1
00000442  0000              add [bx+si],al
00000444  0000              add [bx+si],al
00000446  0000              add [bx+si],al
00000448  2810              sub [bx+si],dl
0000044A  2000              and [bx+si],al
0000044C  0000              add [bx+si],al
0000044E  0000              add [bx+si],al
00000450  0800              or [bx+si],al
00000452  0000              add [bx+si],al
00000454  0000              add [bx+si],al
00000456  0000              add [bx+si],al
00000458  2810              sub [bx+si],dl
0000045A  2000              and [bx+si],al
0000045C  0000              add [bx+si],al
0000045E  0000              add [bx+si],al
00000460  D80F              fmul dword [bx]
00000462  2000              and [bx+si],al
00000464  0000              add [bx+si],al
00000466  0000              add [bx+si],al
00000468  06                push es
00000469  0000              add [bx+si],al
0000046B  0001              add [bx+di],al
0000046D  0000              add [bx+si],al
0000046F  0000              add [bx+si],al
00000471  0000              add [bx+si],al
00000473  0000              add [bx+si],al
00000475  0000              add [bx+si],al
00000477  00E0              add al,ah
00000479  0F                db 0x0f
0000047A  2000              and [bx+si],al
0000047C  0000              add [bx+si],al
0000047E  0000              add [bx+si],al
00000480  06                push es
00000481  0000              add [bx+si],al
00000483  0003              add [bp+di],al
00000485  0000              add [bx+si],al
00000487  0000              add [bx+si],al
00000489  0000              add [bx+si],al
0000048B  0000              add [bx+si],al
0000048D  0000              add [bx+si],al
0000048F  00E8              add al,ch
00000491  0F                db 0x0f
00000492  2000              and [bx+si],al
00000494  0000              add [bx+si],al
00000496  0000              add [bx+si],al
00000498  06                push es
00000499  0000              add [bx+si],al
0000049B  0004              add [si],al
0000049D  0000              add [bx+si],al
0000049F  0000              add [bx+si],al
000004A1  0000              add [bx+si],al
000004A3  0000              add [bx+si],al
000004A5  0000              add [bx+si],al
000004A7  00F0              add al,dh
000004A9  0F                db 0x0f
000004AA  2000              and [bx+si],al
000004AC  0000              add [bx+si],al
000004AE  0000              add [bx+si],al
000004B0  06                push es
000004B1  0000              add [bx+si],al
000004B3  0005              add [di],al
000004B5  0000              add [bx+si],al
000004B7  0000              add [bx+si],al
000004B9  0000              add [bx+si],al
000004BB  0000              add [bx+si],al
000004BD  0000              add [bx+si],al
000004BF  00F8              add al,bh
000004C1  0F                db 0x0f
000004C2  2000              and [bx+si],al
000004C4  0000              add [bx+si],al
000004C6  0000              add [bx+si],al
000004C8  06                push es
000004C9  0000              add [bx+si],al
000004CB  00060000          add [0x0],al
000004CF  0000              add [bx+si],al
000004D1  0000              add [bx+si],al
000004D3  0000              add [bx+si],al
000004D5  0000              add [bx+si],al
000004D7  0018              add [bx+si],bl
000004D9  1020              adc [bx+si],ah
000004DB  0000              add [bx+si],al
000004DD  0000              add [bx+si],al
000004DF  0007              add [bx],al
000004E1  0000              add [bx+si],al
000004E3  0002              add [bp+si],al
000004E5  0000              add [bx+si],al
000004E7  0000              add [bx+si],al
000004E9  0000              add [bx+si],al
000004EB  0000              add [bx+si],al
000004ED  0000              add [bx+si],al
000004EF  004883            add [bx+si-0x7d],cl
000004F2  EC                in al,dx
000004F3  08488B            or [bx+si-0x75],cl
000004F6  05ED0A            add ax,0xaed
000004F9  2000              and [bx+si],al
000004FB  48                dec ax
000004FC  85C0              test ax,ax
000004FE  7402              jz 0x502
00000500  FFD0              call ax
00000502  48                dec ax
00000503  83C408            add sp,byte +0x8
00000506  C3                ret
00000507  0000              add [bx+si],al
00000509  0000              add [bx+si],al
0000050B  0000              add [bx+si],al
0000050D  0000              add [bx+si],al
0000050F  00FF              add bh,bh
00000511  35F20A            xor ax,0xaf2
00000514  2000              and [bx+si],al
00000516  FF25              jmp [di]
00000518  F4                hlt
00000519  0A20              or ah,[bx+si]
0000051B  000F              add [bx],cl
0000051D  1F                pop ds
0000051E  40                inc ax
0000051F  00FF              add bh,bh
00000521  25F20A            and ax,0xaf2
00000524  2000              and [bx+si],al
00000526  680000            push word 0x0
00000529  0000              add [bx+si],al
0000052B  E9E0FF            jmp 0x50e
0000052E  FF                db 0xff
0000052F  FF31              push word [bx+di]
00000531  ED                in ax,dx
00000532  49                dec cx
00000533  89D1              mov cx,dx
00000535  5E                pop si
00000536  48                dec ax
00000537  89E2              mov dx,sp
00000539  48                dec ax
0000053A  83E4F0            and sp,byte -0x10
0000053D  50                push ax
0000053E  54                push sp
0000053F  4C                dec sp
00000540  8D05              lea ax,[di]
00000542  7A01              jpe 0x545
00000544  0000              add [bx+si],al
00000546  48                dec ax
00000547  8D0D              lea cx,[di]
00000549  0301              add ax,[bx+di]
0000054B  0000              add [bx+si],al
0000054D  48                dec ax
0000054E  8D3D              lea di,[di]
00000550  D900              fld dword [bx+si]
00000552  0000              add [bx+si],al
00000554  FF15              call [di]
00000556  860A              xchg cl,[bp+si]
00000558  2000              and [bx+si],al
0000055A  F4                hlt
0000055B  0F1F4400          nop word [si+0x0]
0000055F  00488D            add [bx+si-0x73],cl
00000562  3DC90A            cmp ax,0xac9
00000565  2000              and [bx+si],al
00000567  48                dec ax
00000568  8D05              lea ax,[di]
0000056A  C20A20            ret 0x200a
0000056D  004839            add [bx+si+0x39],cl
00000570  F8                clc
00000571  7415              jz 0x588
00000573  48                dec ax
00000574  8B05              mov ax,[di]
00000576  5E                pop si
00000577  0A20              or ah,[bx+si]
00000579  004885            add [bx+si-0x7b],cl
0000057C  C0                db 0xc0
0000057D  7409              jz 0x588
0000057F  FFE0              jmp ax
00000581  0F1F800000        nop word [bx+si+0x0]
00000586  0000              add [bx+si],al
00000588  C3                ret
00000589  0F1F800000        nop word [bx+si+0x0]
0000058E  0000              add [bx+si],al
00000590  48                dec ax
00000591  8D3D              lea di,[di]
00000593  99                cwd
00000594  0A20              or ah,[bx+si]
00000596  00488D            add [bx+si-0x73],cl
00000599  35920A            xor ax,0xa92
0000059C  2000              and [bx+si],al
0000059E  48                dec ax
0000059F  29FE              sub si,di
000005A1  48                dec ax
000005A2  C1FE03            sar si,byte 0x3
000005A5  48                dec ax
000005A6  89F0              mov ax,si
000005A8  48                dec ax
000005A9  C1E83F            shr ax,byte 0x3f
000005AC  48                dec ax
000005AD  01C6              add si,ax
000005AF  48                dec ax
000005B0  D1FE              sar si,1
000005B2  7414              jz 0x5c8
000005B4  48                dec ax
000005B5  8B05              mov ax,[di]
000005B7  350A20            xor ax,0x200a
000005BA  004885            add [bx+si-0x7b],cl
000005BD  C0                db 0xc0
000005BE  7408              jz 0x5c8
000005C0  FFE0              jmp ax
000005C2  660F1F4400        nop dword [si+0x0]
000005C7  00C3              add bl,al
000005C9  0F1F800000        nop word [bx+si+0x0]
000005CE  0000              add [bx+si],al
000005D0  803D59            cmp byte [di],0x59
000005D3  0A20              or ah,[bx+si]
000005D5  0000              add [bx+si],al
000005D7  752F              jnz 0x608
000005D9  55                push bp
000005DA  48                dec ax
000005DB  833D16            cmp word [di],byte +0x16
000005DE  0A20              or ah,[bx+si]
000005E0  0000              add [bx+si],al
000005E2  48                dec ax
000005E3  89E5              mov bp,sp
000005E5  740D              jz 0x5f4
000005E7  48                dec ax
000005E8  8B3D              mov di,[di]
000005EA  3A0A              cmp cl,[bp+si]
000005EC  2000              and [bx+si],al
000005EE  FF15              call [di]
000005F0  040A              add al,0xa
000005F2  2000              and [bx+si],al
000005F4  E867FF            call 0x55e
000005F7  FF                db 0xff
000005F8  FFC6              inc si
000005FA  05300A            add ax,0xa30
000005FD  2000              and [bx+si],al
000005FF  015DC3            add [di-0x3d],bx
00000602  660F1F4400        nop dword [si+0x0]
00000607  00C3              add bl,al
00000609  0F1F800000        nop word [bx+si+0x0]
0000060E  0000              add [bx+si],al
00000610  E97BFF            jmp 0x58e
00000613  FF                db 0xff
00000614  FF5548            call [di+0x48]
00000617  89E5              mov bp,sp
00000619  48                dec ax
0000061A  8D3D              lea di,[di]
0000061C  B400              mov ah,0x0
0000061E  0000              add [bx+si],al
00000620  B80000            mov ax,0x0
00000623  0000              add [bx+si],al
00000625  E8F6FE            call 0x51e
00000628  FF                db 0xff
00000629  FF905DC3          call [bx+si-0x3ca3]
0000062D  55                push bp
0000062E  48                dec ax
0000062F  89E5              mov bp,sp
00000631  B80000            mov ax,0x0
00000634  0000              add [bx+si],al
00000636  E8DAFF            call 0x613
00000639  FF                db 0xff
0000063A  FF                db 0xff
0000063B  B80000            mov ax,0x0
0000063E  0000              add [bx+si],al
00000640  5D                pop bp
00000641  C3                ret
00000642  662E0F1F840000    nop dword [cs:si+0x0]
00000649  0000              add [bx+si],al
0000064B  000F              add [bx],cl
0000064D  1F                pop ds
0000064E  40                inc ax
0000064F  004157            add [bx+di+0x57],al
00000652  49                dec cx
00000653  89D7              mov di,dx
00000655  41                inc cx
00000656  56                push si
00000657  49                dec cx
00000658  89F6              mov si,si
0000065A  41                inc cx
0000065B  55                push bp
0000065C  41                inc cx
0000065D  89FD              mov bp,di
0000065F  41                inc cx
00000660  54                push sp
00000661  4C                dec sp
00000662  8D25              lea sp,[di]
00000664  800720            add byte [bx],0x20
00000667  005548            add [di+0x48],dl
0000066A  8D2D              lea bp,[di]
0000066C  800720            add byte [bx],0x20
0000066F  00534C            add [bp+di+0x4c],dl
00000672  29E5              sub bp,sp
00000674  48                dec ax
00000675  83EC08            sub sp,byte +0x8
00000678  67E872FE          call 0x4ee
0000067C  FF                db 0xff
0000067D  FF48C1            dec word [bx+si-0x3f]
00000680  FD                std
00000681  037422            add si,[si+0x22]
00000684  31DB              xor bx,bx
00000686  662E0F1F840000    nop dword [cs:si+0x0]
0000068D  0000              add [bx+si],al
0000068F  004C89            add [si-0x77],cl
00000692  FA                cli
00000693  4C                dec sp
00000694  89F6              mov si,si
00000696  44                inc sp
00000697  89EF              mov di,bp
00000699  41                inc cx
0000069A  FF14              call [si]
0000069C  DC4883            fmul qword [bx+si-0x7d]
0000069F  C3                ret
000006A0  014839            add [bx+si+0x39],cx
000006A3  DD75EA            fnsave [di-0x16]
000006A6  48                dec ax
000006A7  83C408            add sp,byte +0x8
000006AA  5B                pop bx
000006AB  5D                pop bp
000006AC  41                inc cx
000006AD  5C                pop sp
000006AE  41                inc cx
000006AF  5D                pop bp
000006B0  41                inc cx
000006B1  5E                pop si
000006B2  41                inc cx
000006B3  5F                pop di
000006B4  C3                ret
000006B5  90                nop
000006B6  662E0F1F840000    nop dword [cs:si+0x0]
000006BD  0000              add [bx+si],al
000006BF  00C3              add bl,al
000006C1  0000              add [bx+si],al
000006C3  004883            add [bx+si-0x7d],cl
000006C6  EC                in al,dx
000006C7  084883            or [bx+si-0x7d],cl
000006CA  C408              les cx,[bx+si]
000006CC  C3                ret
000006CD  0000              add [bx+si],al
000006CF  0001              add [bx+di],al
000006D1  0002              add [bp+si],al
000006D3  007373            add [bp+di+0x73],dh
000006D6  0000              add [bx+si],al
000006D8  011B              add [bp+di],bx
000006DA  033B              add di,[bp+di]
000006DC  3C00              cmp al,0x0
000006DE  0000              add [bx+si],al
000006E0  06                push es
000006E1  0000              add [bx+si],al
000006E3  0038              add [bx+si],bh
000006E5  FE                db 0xfe
000006E6  FF                db 0xff
000006E7  FF880000          dec word [bx+si+0x0]
000006EB  0058FE            add [bx+si-0x2],bl
000006EE  FF                db 0xff
000006EF  FF5800            call far [bx+si+0x0]
000006F2  0000              add [bx+si],al
000006F4  3DFFFF            cmp ax,0xffff
000006F7  FFB00000          push word [bx+si+0x0]
000006FB  0055FF            add [di-0x1],dl
000006FE  FF                db 0xff
000006FF  FFD0              call ax
00000701  0000              add [bx+si],al
00000703  0078FF            add [bx+si-0x1],bh
00000706  FF                db 0xff
00000707  FFF0              push ax
00000709  0000              add [bx+si],al
0000070B  00E8              add al,ch
0000070D  FF                db 0xff
0000070E  FF                db 0xff
0000070F  FF                db 0xff
00000710  3801              cmp [bx+di],al
00000712  0000              add [bx+si],al
00000714  0000              add [bx+si],al
00000716  0000              add [bx+si],al
00000718  1400              adc al,0x0
0000071A  0000              add [bx+si],al
0000071C  0000              add [bx+si],al
0000071E  0000              add [bx+si],al
00000720  017A52            add [bp+si+0x52],di
00000723  0001              add [bx+di],al
00000725  7810              js 0x737
00000727  011B              add [bp+di],bx
00000729  0C07              or al,0x7
0000072B  08900107          or [bx+si+0x701],dl
0000072F  1014              adc [si],dl
00000731  0000              add [bx+si],al
00000733  001C              add [si],bl
00000735  0000              add [bx+si],al
00000737  00F8              add al,bh
00000739  FD                std
0000073A  FF                db 0xff
0000073B  FF2B              jmp far [bp+di]
0000073D  0000              add [bx+si],al
0000073F  0000              add [bx+si],al
00000741  0000              add [bx+si],al
00000743  0000              add [bx+si],al
00000745  0000              add [bx+si],al
00000747  0014              add [si],dl
00000749  0000              add [bx+si],al
0000074B  0000              add [bx+si],al
0000074D  0000              add [bx+si],al
0000074F  0001              add [bx+di],al
00000751  7A52              jpe 0x7a5
00000753  0001              add [bx+di],al
00000755  7810              js 0x767
00000757  011B              add [bp+di],bx
00000759  0C07              or al,0x7
0000075B  08900100          or [bx+si+0x1],dl
0000075F  0024              add [si],ah
00000761  0000              add [bx+si],al
00000763  001C              add [si],bl
00000765  0000              add [bx+si],al
00000767  00A8FDFF          add [bx+si-0x3],ch
0000076B  FF20              jmp [bx+si]
0000076D  0000              add [bx+si],al
0000076F  0000              add [bx+si],al
00000771  0E                push cs
00000772  10460E            adc [bp+0xe],al
00000775  184A0F            sbb [bp+si+0xf],cl
00000778  0B7708            or si,[bx+0x8]
0000077B  80003F            add byte [bx+si],0x3f
0000077E  1A3B              sbb bh,[bp+di]
00000780  2A33              sub dh,[bp+di]
00000782  2422              and al,0x22
00000784  0000              add [bx+si],al
00000786  0000              add [bx+si],al
00000788  1C00              sbb al,0x0
0000078A  0000              add [bx+si],al
0000078C  44                inc sp
0000078D  0000              add [bx+si],al
0000078F  0085FEFF          add [di-0x2],al
00000793  FF18              call far [bx+si]
00000795  0000              add [bx+si],al
00000797  0000              add [bx+si],al
00000799  41                inc cx
0000079A  0E                push cs
0000079B  10860243          adc [bp+0x4302],al
0000079F  0D0653            or ax,0x5306
000007A2  0C07              or al,0x7
000007A4  0800              or [bx+si],al
000007A6  0000              add [bx+si],al
000007A8  1C00              sbb al,0x0
000007AA  0000              add [bx+si],al
000007AC  640000            add [fs:bx+si],al
000007AF  007DFE            add [di-0x2],bh
000007B2  FF                db 0xff
000007B3  FF15              call [di]
000007B5  0000              add [bx+si],al
000007B7  0000              add [bx+si],al
000007B9  41                inc cx
000007BA  0E                push cs
000007BB  10860243          adc [bp+0x4302],al
000007BF  0D0650            or ax,0x5006
000007C2  0C07              or al,0x7
000007C4  0800              or [bx+si],al
000007C6  0000              add [bx+si],al
000007C8  44                inc sp
000007C9  0000              add [bx+si],al
000007CB  00840000          add [si+0x0],al
000007CF  0080FEFF          add [bx+si-0x2],al
000007D3  FF6500            jmp [di+0x0]
000007D6  0000              add [bx+si],al
000007D8  00420E            add [bp+si+0xe],al
000007DB  108F0245          adc [bx+0x4502],cl
000007DF  0E                push cs
000007E0  188E0345          sbb [bp+0x4503],cl
000007E4  0E                push cs
000007E5  208D0445          and [di+0x4504],cl
000007E9  0E                push cs
000007EA  288C0548          sub [si+0x4805],cl
000007EE  0E                push cs
000007EF  30860648          xor [bp+0x4806],al
000007F3  0E                push cs
000007F4  38830747          cmp [bp+di+0x4707],al
000007F8  0E                push cs
000007F9  40                inc ax
000007FA  720E              jc 0x80a
000007FC  38410E            cmp [bx+di+0xe],al
000007FF  30410E            xor [bx+di+0xe],al
00000802  28420E            sub [bp+si+0xe],al
00000805  20420E            and [bp+si+0xe],al
00000808  18420E            sbb [bp+si+0xe],al
0000080B  10420E            adc [bp+si+0xe],al
0000080E  0800              or [bx+si],al
00000810  1000              adc [bx+si],al
00000812  0000              add [bx+si],al
00000814  CC                int3
00000815  0000              add [bx+si],al
00000817  00A8FEFF          add [bx+si-0x2],ch
0000081B  FF01              inc word [bx+di]
0000081D  0000              add [bx+si],al
0000081F  0000              add [bx+si],al
00000821  0000              add [bx+si],al
00000823  0000              add [bx+si],al
00000825  0000              add [bx+si],al
00000827  0000              add [bx+si],al
00000829  0000              add [bx+si],al
0000082B  0000              add [bx+si],al
0000082D  0000              add [bx+si],al
0000082F  0000              add [bx+si],al
00000831  0000              add [bx+si],al
00000833  0000              add [bx+si],al
00000835  0000              add [bx+si],al
00000837  0000              add [bx+si],al
00000839  0000              add [bx+si],al
0000083B  0000              add [bx+si],al
0000083D  0000              add [bx+si],al
0000083F  0000              add [bx+si],al
00000841  0000              add [bx+si],al
00000843  0000              add [bx+si],al
00000845  0000              add [bx+si],al
00000847  0000              add [bx+si],al
00000849  0000              add [bx+si],al
0000084B  0000              add [bx+si],al
0000084D  0000              add [bx+si],al
0000084F  0000              add [bx+si],al
00000851  0000              add [bx+si],al
00000853  0000              add [bx+si],al
00000855  0000              add [bx+si],al
00000857  0000              add [bx+si],al
00000859  0000              add [bx+si],al
0000085B  0000              add [bx+si],al
0000085D  0000              add [bx+si],al
0000085F  0000              add [bx+si],al
00000861  0000              add [bx+si],al
00000863  0000              add [bx+si],al
00000865  0000              add [bx+si],al
00000867  0000              add [bx+si],al
00000869  0000              add [bx+si],al
0000086B  0000              add [bx+si],al
0000086D  0000              add [bx+si],al
0000086F  0000              add [bx+si],al
00000871  0000              add [bx+si],al
00000873  0000              add [bx+si],al
00000875  0000              add [bx+si],al
00000877  0000              add [bx+si],al
00000879  0000              add [bx+si],al
0000087B  0000              add [bx+si],al
0000087D  0000              add [bx+si],al
0000087F  0000              add [bx+si],al
00000881  0000              add [bx+si],al
00000883  0000              add [bx+si],al
00000885  0000              add [bx+si],al
00000887  0000              add [bx+si],al
00000889  0000              add [bx+si],al
0000088B  0000              add [bx+si],al
0000088D  0000              add [bx+si],al
0000088F  0000              add [bx+si],al
00000891  0000              add [bx+si],al
00000893  0000              add [bx+si],al
00000895  0000              add [bx+si],al
00000897  0000              add [bx+si],al
00000899  0000              add [bx+si],al
0000089B  0000              add [bx+si],al
0000089D  0000              add [bx+si],al
0000089F  0000              add [bx+si],al
000008A1  0000              add [bx+si],al
000008A3  0000              add [bx+si],al
000008A5  0000              add [bx+si],al
000008A7  0000              add [bx+si],al
000008A9  0000              add [bx+si],al
000008AB  0000              add [bx+si],al
000008AD  0000              add [bx+si],al
000008AF  0000              add [bx+si],al
000008B1  0000              add [bx+si],al
000008B3  0000              add [bx+si],al
000008B5  0000              add [bx+si],al
000008B7  0000              add [bx+si],al
000008B9  0000              add [bx+si],al
000008BB  0000              add [bx+si],al
000008BD  0000              add [bx+si],al
000008BF  0000              add [bx+si],al
000008C1  0000              add [bx+si],al
000008C3  0000              add [bx+si],al
000008C5  0000              add [bx+si],al
000008C7  0000              add [bx+si],al
000008C9  0000              add [bx+si],al
000008CB  0000              add [bx+si],al
000008CD  0000              add [bx+si],al
000008CF  0000              add [bx+si],al
000008D1  0000              add [bx+si],al
000008D3  0000              add [bx+si],al
000008D5  0000              add [bx+si],al
000008D7  0000              add [bx+si],al
000008D9  0000              add [bx+si],al
000008DB  0000              add [bx+si],al
000008DD  0000              add [bx+si],al
000008DF  0000              add [bx+si],al
000008E1  0000              add [bx+si],al
000008E3  0000              add [bx+si],al
000008E5  0000              add [bx+si],al
000008E7  0000              add [bx+si],al
000008E9  0000              add [bx+si],al
000008EB  0000              add [bx+si],al
000008ED  0000              add [bx+si],al
000008EF  0000              add [bx+si],al
000008F1  0000              add [bx+si],al
000008F3  0000              add [bx+si],al
000008F5  0000              add [bx+si],al
000008F7  0000              add [bx+si],al
000008F9  0000              add [bx+si],al
000008FB  0000              add [bx+si],al
000008FD  0000              add [bx+si],al
000008FF  0000              add [bx+si],al
00000901  0000              add [bx+si],al
00000903  0000              add [bx+si],al
00000905  0000              add [bx+si],al
00000907  0000              add [bx+si],al
00000909  0000              add [bx+si],al
0000090B  0000              add [bx+si],al
0000090D  0000              add [bx+si],al
0000090F  0000              add [bx+si],al
00000911  0000              add [bx+si],al
00000913  0000              add [bx+si],al
00000915  0000              add [bx+si],al
00000917  0000              add [bx+si],al
00000919  0000              add [bx+si],al
0000091B  0000              add [bx+si],al
0000091D  0000              add [bx+si],al
0000091F  0000              add [bx+si],al
00000921  0000              add [bx+si],al
00000923  0000              add [bx+si],al
00000925  0000              add [bx+si],al
00000927  0000              add [bx+si],al
00000929  0000              add [bx+si],al
0000092B  0000              add [bx+si],al
0000092D  0000              add [bx+si],al
0000092F  0000              add [bx+si],al
00000931  0000              add [bx+si],al
00000933  0000              add [bx+si],al
00000935  0000              add [bx+si],al
00000937  0000              add [bx+si],al
00000939  0000              add [bx+si],al
0000093B  0000              add [bx+si],al
0000093D  0000              add [bx+si],al
0000093F  0000              add [bx+si],al
00000941  0000              add [bx+si],al
00000943  0000              add [bx+si],al
00000945  0000              add [bx+si],al
00000947  0000              add [bx+si],al
00000949  0000              add [bx+si],al
0000094B  0000              add [bx+si],al
0000094D  0000              add [bx+si],al
0000094F  0000              add [bx+si],al
00000951  0000              add [bx+si],al
00000953  0000              add [bx+si],al
00000955  0000              add [bx+si],al
00000957  0000              add [bx+si],al
00000959  0000              add [bx+si],al
0000095B  0000              add [bx+si],al
0000095D  0000              add [bx+si],al
0000095F  0000              add [bx+si],al
00000961  0000              add [bx+si],al
00000963  0000              add [bx+si],al
00000965  0000              add [bx+si],al
00000967  0000              add [bx+si],al
00000969  0000              add [bx+si],al
0000096B  0000              add [bx+si],al
0000096D  0000              add [bx+si],al
0000096F  0000              add [bx+si],al
00000971  0000              add [bx+si],al
00000973  0000              add [bx+si],al
00000975  0000              add [bx+si],al
00000977  0000              add [bx+si],al
00000979  0000              add [bx+si],al
0000097B  0000              add [bx+si],al
0000097D  0000              add [bx+si],al
0000097F  0000              add [bx+si],al
00000981  0000              add [bx+si],al
00000983  0000              add [bx+si],al
00000985  0000              add [bx+si],al
00000987  0000              add [bx+si],al
00000989  0000              add [bx+si],al
0000098B  0000              add [bx+si],al
0000098D  0000              add [bx+si],al
0000098F  0000              add [bx+si],al
00000991  0000              add [bx+si],al
00000993  0000              add [bx+si],al
00000995  0000              add [bx+si],al
00000997  0000              add [bx+si],al
00000999  0000              add [bx+si],al
0000099B  0000              add [bx+si],al
0000099D  0000              add [bx+si],al
0000099F  0000              add [bx+si],al
000009A1  0000              add [bx+si],al
000009A3  0000              add [bx+si],al
000009A5  0000              add [bx+si],al
000009A7  0000              add [bx+si],al
000009A9  0000              add [bx+si],al
000009AB  0000              add [bx+si],al
000009AD  0000              add [bx+si],al
000009AF  0000              add [bx+si],al
000009B1  0000              add [bx+si],al
000009B3  0000              add [bx+si],al
000009B5  0000              add [bx+si],al
000009B7  0000              add [bx+si],al
000009B9  0000              add [bx+si],al
000009BB  0000              add [bx+si],al
000009BD  0000              add [bx+si],al
000009BF  0000              add [bx+si],al
000009C1  0000              add [bx+si],al
000009C3  0000              add [bx+si],al
000009C5  0000              add [bx+si],al
000009C7  0000              add [bx+si],al
000009C9  0000              add [bx+si],al
000009CB  0000              add [bx+si],al
000009CD  0000              add [bx+si],al
000009CF  0000              add [bx+si],al
000009D1  0000              add [bx+si],al
000009D3  0000              add [bx+si],al
000009D5  0000              add [bx+si],al
000009D7  0000              add [bx+si],al
000009D9  0000              add [bx+si],al
000009DB  0000              add [bx+si],al
000009DD  0000              add [bx+si],al
000009DF  0000              add [bx+si],al
000009E1  0000              add [bx+si],al
000009E3  0000              add [bx+si],al
000009E5  0000              add [bx+si],al
000009E7  0000              add [bx+si],al
000009E9  0000              add [bx+si],al
000009EB  0000              add [bx+si],al
000009ED  0000              add [bx+si],al
000009EF  0000              add [bx+si],al
000009F1  0000              add [bx+si],al
000009F3  0000              add [bx+si],al
000009F5  0000              add [bx+si],al
000009F7  0000              add [bx+si],al
000009F9  0000              add [bx+si],al
000009FB  0000              add [bx+si],al
000009FD  0000              add [bx+si],al
000009FF  0000              add [bx+si],al
00000A01  0000              add [bx+si],al
00000A03  0000              add [bx+si],al
00000A05  0000              add [bx+si],al
00000A07  0000              add [bx+si],al
00000A09  0000              add [bx+si],al
00000A0B  0000              add [bx+si],al
00000A0D  0000              add [bx+si],al
00000A0F  0000              add [bx+si],al
00000A11  0000              add [bx+si],al
00000A13  0000              add [bx+si],al
00000A15  0000              add [bx+si],al
00000A17  0000              add [bx+si],al
00000A19  0000              add [bx+si],al
00000A1B  0000              add [bx+si],al
00000A1D  0000              add [bx+si],al
00000A1F  0000              add [bx+si],al
00000A21  0000              add [bx+si],al
00000A23  0000              add [bx+si],al
00000A25  0000              add [bx+si],al
00000A27  0000              add [bx+si],al
00000A29  0000              add [bx+si],al
00000A2B  0000              add [bx+si],al
00000A2D  0000              add [bx+si],al
00000A2F  0000              add [bx+si],al
00000A31  0000              add [bx+si],al
00000A33  0000              add [bx+si],al
00000A35  0000              add [bx+si],al
00000A37  0000              add [bx+si],al
00000A39  0000              add [bx+si],al
00000A3B  0000              add [bx+si],al
00000A3D  0000              add [bx+si],al
00000A3F  0000              add [bx+si],al
00000A41  0000              add [bx+si],al
00000A43  0000              add [bx+si],al
00000A45  0000              add [bx+si],al
00000A47  0000              add [bx+si],al
00000A49  0000              add [bx+si],al
00000A4B  0000              add [bx+si],al
00000A4D  0000              add [bx+si],al
00000A4F  0000              add [bx+si],al
00000A51  0000              add [bx+si],al
00000A53  0000              add [bx+si],al
00000A55  0000              add [bx+si],al
00000A57  0000              add [bx+si],al
00000A59  0000              add [bx+si],al
00000A5B  0000              add [bx+si],al
00000A5D  0000              add [bx+si],al
00000A5F  0000              add [bx+si],al
00000A61  0000              add [bx+si],al
00000A63  0000              add [bx+si],al
00000A65  0000              add [bx+si],al
00000A67  0000              add [bx+si],al
00000A69  0000              add [bx+si],al
00000A6B  0000              add [bx+si],al
00000A6D  0000              add [bx+si],al
00000A6F  0000              add [bx+si],al
00000A71  0000              add [bx+si],al
00000A73  0000              add [bx+si],al
00000A75  0000              add [bx+si],al
00000A77  0000              add [bx+si],al
00000A79  0000              add [bx+si],al
00000A7B  0000              add [bx+si],al
00000A7D  0000              add [bx+si],al
00000A7F  0000              add [bx+si],al
00000A81  0000              add [bx+si],al
00000A83  0000              add [bx+si],al
00000A85  0000              add [bx+si],al
00000A87  0000              add [bx+si],al
00000A89  0000              add [bx+si],al
00000A8B  0000              add [bx+si],al
00000A8D  0000              add [bx+si],al
00000A8F  0000              add [bx+si],al
00000A91  0000              add [bx+si],al
00000A93  0000              add [bx+si],al
00000A95  0000              add [bx+si],al
00000A97  0000              add [bx+si],al
00000A99  0000              add [bx+si],al
00000A9B  0000              add [bx+si],al
00000A9D  0000              add [bx+si],al
00000A9F  0000              add [bx+si],al
00000AA1  0000              add [bx+si],al
00000AA3  0000              add [bx+si],al
00000AA5  0000              add [bx+si],al
00000AA7  0000              add [bx+si],al
00000AA9  0000              add [bx+si],al
00000AAB  0000              add [bx+si],al
00000AAD  0000              add [bx+si],al
00000AAF  0000              add [bx+si],al
00000AB1  0000              add [bx+si],al
00000AB3  0000              add [bx+si],al
00000AB5  0000              add [bx+si],al
00000AB7  0000              add [bx+si],al
00000AB9  0000              add [bx+si],al
00000ABB  0000              add [bx+si],al
00000ABD  0000              add [bx+si],al
00000ABF  0000              add [bx+si],al
00000AC1  0000              add [bx+si],al
00000AC3  0000              add [bx+si],al
00000AC5  0000              add [bx+si],al
00000AC7  0000              add [bx+si],al
00000AC9  0000              add [bx+si],al
00000ACB  0000              add [bx+si],al
00000ACD  0000              add [bx+si],al
00000ACF  0000              add [bx+si],al
00000AD1  0000              add [bx+si],al
00000AD3  0000              add [bx+si],al
00000AD5  0000              add [bx+si],al
00000AD7  0000              add [bx+si],al
00000AD9  0000              add [bx+si],al
00000ADB  0000              add [bx+si],al
00000ADD  0000              add [bx+si],al
00000ADF  0000              add [bx+si],al
00000AE1  0000              add [bx+si],al
00000AE3  0000              add [bx+si],al
00000AE5  0000              add [bx+si],al
00000AE7  0000              add [bx+si],al
00000AE9  0000              add [bx+si],al
00000AEB  0000              add [bx+si],al
00000AED  0000              add [bx+si],al
00000AEF  0000              add [bx+si],al
00000AF1  0000              add [bx+si],al
00000AF3  0000              add [bx+si],al
00000AF5  0000              add [bx+si],al
00000AF7  0000              add [bx+si],al
00000AF9  0000              add [bx+si],al
00000AFB  0000              add [bx+si],al
00000AFD  0000              add [bx+si],al
00000AFF  0000              add [bx+si],al
00000B01  0000              add [bx+si],al
00000B03  0000              add [bx+si],al
00000B05  0000              add [bx+si],al
00000B07  0000              add [bx+si],al
00000B09  0000              add [bx+si],al
00000B0B  0000              add [bx+si],al
00000B0D  0000              add [bx+si],al
00000B0F  0000              add [bx+si],al
00000B11  0000              add [bx+si],al
00000B13  0000              add [bx+si],al
00000B15  0000              add [bx+si],al
00000B17  0000              add [bx+si],al
00000B19  0000              add [bx+si],al
00000B1B  0000              add [bx+si],al
00000B1D  0000              add [bx+si],al
00000B1F  0000              add [bx+si],al
00000B21  0000              add [bx+si],al
00000B23  0000              add [bx+si],al
00000B25  0000              add [bx+si],al
00000B27  0000              add [bx+si],al
00000B29  0000              add [bx+si],al
00000B2B  0000              add [bx+si],al
00000B2D  0000              add [bx+si],al
00000B2F  0000              add [bx+si],al
00000B31  0000              add [bx+si],al
00000B33  0000              add [bx+si],al
00000B35  0000              add [bx+si],al
00000B37  0000              add [bx+si],al
00000B39  0000              add [bx+si],al
00000B3B  0000              add [bx+si],al
00000B3D  0000              add [bx+si],al
00000B3F  0000              add [bx+si],al
00000B41  0000              add [bx+si],al
00000B43  0000              add [bx+si],al
00000B45  0000              add [bx+si],al
00000B47  0000              add [bx+si],al
00000B49  0000              add [bx+si],al
00000B4B  0000              add [bx+si],al
00000B4D  0000              add [bx+si],al
00000B4F  0000              add [bx+si],al
00000B51  0000              add [bx+si],al
00000B53  0000              add [bx+si],al
00000B55  0000              add [bx+si],al
00000B57  0000              add [bx+si],al
00000B59  0000              add [bx+si],al
00000B5B  0000              add [bx+si],al
00000B5D  0000              add [bx+si],al
00000B5F  0000              add [bx+si],al
00000B61  0000              add [bx+si],al
00000B63  0000              add [bx+si],al
00000B65  0000              add [bx+si],al
00000B67  0000              add [bx+si],al
00000B69  0000              add [bx+si],al
00000B6B  0000              add [bx+si],al
00000B6D  0000              add [bx+si],al
00000B6F  0000              add [bx+si],al
00000B71  0000              add [bx+si],al
00000B73  0000              add [bx+si],al
00000B75  0000              add [bx+si],al
00000B77  0000              add [bx+si],al
00000B79  0000              add [bx+si],al
00000B7B  0000              add [bx+si],al
00000B7D  0000              add [bx+si],al
00000B7F  0000              add [bx+si],al
00000B81  0000              add [bx+si],al
00000B83  0000              add [bx+si],al
00000B85  0000              add [bx+si],al
00000B87  0000              add [bx+si],al
00000B89  0000              add [bx+si],al
00000B8B  0000              add [bx+si],al
00000B8D  0000              add [bx+si],al
00000B8F  0000              add [bx+si],al
00000B91  0000              add [bx+si],al
00000B93  0000              add [bx+si],al
00000B95  0000              add [bx+si],al
00000B97  0000              add [bx+si],al
00000B99  0000              add [bx+si],al
00000B9B  0000              add [bx+si],al
00000B9D  0000              add [bx+si],al
00000B9F  0000              add [bx+si],al
00000BA1  0000              add [bx+si],al
00000BA3  0000              add [bx+si],al
00000BA5  0000              add [bx+si],al
00000BA7  0000              add [bx+si],al
00000BA9  0000              add [bx+si],al
00000BAB  0000              add [bx+si],al
00000BAD  0000              add [bx+si],al
00000BAF  0000              add [bx+si],al
00000BB1  0000              add [bx+si],al
00000BB3  0000              add [bx+si],al
00000BB5  0000              add [bx+si],al
00000BB7  0000              add [bx+si],al
00000BB9  0000              add [bx+si],al
00000BBB  0000              add [bx+si],al
00000BBD  0000              add [bx+si],al
00000BBF  0000              add [bx+si],al
00000BC1  0000              add [bx+si],al
00000BC3  0000              add [bx+si],al
00000BC5  0000              add [bx+si],al
00000BC7  0000              add [bx+si],al
00000BC9  0000              add [bx+si],al
00000BCB  0000              add [bx+si],al
00000BCD  0000              add [bx+si],al
00000BCF  0000              add [bx+si],al
00000BD1  0000              add [bx+si],al
00000BD3  0000              add [bx+si],al
00000BD5  0000              add [bx+si],al
00000BD7  0000              add [bx+si],al
00000BD9  0000              add [bx+si],al
00000BDB  0000              add [bx+si],al
00000BDD  0000              add [bx+si],al
00000BDF  0000              add [bx+si],al
00000BE1  0000              add [bx+si],al
00000BE3  0000              add [bx+si],al
00000BE5  0000              add [bx+si],al
00000BE7  0000              add [bx+si],al
00000BE9  0000              add [bx+si],al
00000BEB  0000              add [bx+si],al
00000BED  0000              add [bx+si],al
00000BEF  0000              add [bx+si],al
00000BF1  0000              add [bx+si],al
00000BF3  0000              add [bx+si],al
00000BF5  0000              add [bx+si],al
00000BF7  0000              add [bx+si],al
00000BF9  0000              add [bx+si],al
00000BFB  0000              add [bx+si],al
00000BFD  0000              add [bx+si],al
00000BFF  0000              add [bx+si],al
00000C01  0000              add [bx+si],al
00000C03  0000              add [bx+si],al
00000C05  0000              add [bx+si],al
00000C07  0000              add [bx+si],al
00000C09  0000              add [bx+si],al
00000C0B  0000              add [bx+si],al
00000C0D  0000              add [bx+si],al
00000C0F  0000              add [bx+si],al
00000C11  0000              add [bx+si],al
00000C13  0000              add [bx+si],al
00000C15  0000              add [bx+si],al
00000C17  0000              add [bx+si],al
00000C19  0000              add [bx+si],al
00000C1B  0000              add [bx+si],al
00000C1D  0000              add [bx+si],al
00000C1F  0000              add [bx+si],al
00000C21  0000              add [bx+si],al
00000C23  0000              add [bx+si],al
00000C25  0000              add [bx+si],al
00000C27  0000              add [bx+si],al
00000C29  0000              add [bx+si],al
00000C2B  0000              add [bx+si],al
00000C2D  0000              add [bx+si],al
00000C2F  0000              add [bx+si],al
00000C31  0000              add [bx+si],al
00000C33  0000              add [bx+si],al
00000C35  0000              add [bx+si],al
00000C37  0000              add [bx+si],al
00000C39  0000              add [bx+si],al
00000C3B  0000              add [bx+si],al
00000C3D  0000              add [bx+si],al
00000C3F  0000              add [bx+si],al
00000C41  0000              add [bx+si],al
00000C43  0000              add [bx+si],al
00000C45  0000              add [bx+si],al
00000C47  0000              add [bx+si],al
00000C49  0000              add [bx+si],al
00000C4B  0000              add [bx+si],al
00000C4D  0000              add [bx+si],al
00000C4F  0000              add [bx+si],al
00000C51  0000              add [bx+si],al
00000C53  0000              add [bx+si],al
00000C55  0000              add [bx+si],al
00000C57  0000              add [bx+si],al
00000C59  0000              add [bx+si],al
00000C5B  0000              add [bx+si],al
00000C5D  0000              add [bx+si],al
00000C5F  0000              add [bx+si],al
00000C61  0000              add [bx+si],al
00000C63  0000              add [bx+si],al
00000C65  0000              add [bx+si],al
00000C67  0000              add [bx+si],al
00000C69  0000              add [bx+si],al
00000C6B  0000              add [bx+si],al
00000C6D  0000              add [bx+si],al
00000C6F  0000              add [bx+si],al
00000C71  0000              add [bx+si],al
00000C73  0000              add [bx+si],al
00000C75  0000              add [bx+si],al
00000C77  0000              add [bx+si],al
00000C79  0000              add [bx+si],al
00000C7B  0000              add [bx+si],al
00000C7D  0000              add [bx+si],al
00000C7F  0000              add [bx+si],al
00000C81  0000              add [bx+si],al
00000C83  0000              add [bx+si],al
00000C85  0000              add [bx+si],al
00000C87  0000              add [bx+si],al
00000C89  0000              add [bx+si],al
00000C8B  0000              add [bx+si],al
00000C8D  0000              add [bx+si],al
00000C8F  0000              add [bx+si],al
00000C91  0000              add [bx+si],al
00000C93  0000              add [bx+si],al
00000C95  0000              add [bx+si],al
00000C97  0000              add [bx+si],al
00000C99  0000              add [bx+si],al
00000C9B  0000              add [bx+si],al
00000C9D  0000              add [bx+si],al
00000C9F  0000              add [bx+si],al
00000CA1  0000              add [bx+si],al
00000CA3  0000              add [bx+si],al
00000CA5  0000              add [bx+si],al
00000CA7  0000              add [bx+si],al
00000CA9  0000              add [bx+si],al
00000CAB  0000              add [bx+si],al
00000CAD  0000              add [bx+si],al
00000CAF  0000              add [bx+si],al
00000CB1  0000              add [bx+si],al
00000CB3  0000              add [bx+si],al
00000CB5  0000              add [bx+si],al
00000CB7  0000              add [bx+si],al
00000CB9  0000              add [bx+si],al
00000CBB  0000              add [bx+si],al
00000CBD  0000              add [bx+si],al
00000CBF  0000              add [bx+si],al
00000CC1  0000              add [bx+si],al
00000CC3  0000              add [bx+si],al
00000CC5  0000              add [bx+si],al
00000CC7  0000              add [bx+si],al
00000CC9  0000              add [bx+si],al
00000CCB  0000              add [bx+si],al
00000CCD  0000              add [bx+si],al
00000CCF  0000              add [bx+si],al
00000CD1  0000              add [bx+si],al
00000CD3  0000              add [bx+si],al
00000CD5  0000              add [bx+si],al
00000CD7  0000              add [bx+si],al
00000CD9  0000              add [bx+si],al
00000CDB  0000              add [bx+si],al
00000CDD  0000              add [bx+si],al
00000CDF  0000              add [bx+si],al
00000CE1  0000              add [bx+si],al
00000CE3  0000              add [bx+si],al
00000CE5  0000              add [bx+si],al
00000CE7  0000              add [bx+si],al
00000CE9  0000              add [bx+si],al
00000CEB  0000              add [bx+si],al
00000CED  0000              add [bx+si],al
00000CEF  0000              add [bx+si],al
00000CF1  0000              add [bx+si],al
00000CF3  0000              add [bx+si],al
00000CF5  0000              add [bx+si],al
00000CF7  0000              add [bx+si],al
00000CF9  0000              add [bx+si],al
00000CFB  0000              add [bx+si],al
00000CFD  0000              add [bx+si],al
00000CFF  0000              add [bx+si],al
00000D01  0000              add [bx+si],al
00000D03  0000              add [bx+si],al
00000D05  0000              add [bx+si],al
00000D07  0000              add [bx+si],al
00000D09  0000              add [bx+si],al
00000D0B  0000              add [bx+si],al
00000D0D  0000              add [bx+si],al
00000D0F  0000              add [bx+si],al
00000D11  0000              add [bx+si],al
00000D13  0000              add [bx+si],al
00000D15  0000              add [bx+si],al
00000D17  0000              add [bx+si],al
00000D19  0000              add [bx+si],al
00000D1B  0000              add [bx+si],al
00000D1D  0000              add [bx+si],al
00000D1F  0000              add [bx+si],al
00000D21  0000              add [bx+si],al
00000D23  0000              add [bx+si],al
00000D25  0000              add [bx+si],al
00000D27  0000              add [bx+si],al
00000D29  0000              add [bx+si],al
00000D2B  0000              add [bx+si],al
00000D2D  0000              add [bx+si],al
00000D2F  0000              add [bx+si],al
00000D31  0000              add [bx+si],al
00000D33  0000              add [bx+si],al
00000D35  0000              add [bx+si],al
00000D37  0000              add [bx+si],al
00000D39  0000              add [bx+si],al
00000D3B  0000              add [bx+si],al
00000D3D  0000              add [bx+si],al
00000D3F  0000              add [bx+si],al
00000D41  0000              add [bx+si],al
00000D43  0000              add [bx+si],al
00000D45  0000              add [bx+si],al
00000D47  0000              add [bx+si],al
00000D49  0000              add [bx+si],al
00000D4B  0000              add [bx+si],al
00000D4D  0000              add [bx+si],al
00000D4F  0000              add [bx+si],al
00000D51  0000              add [bx+si],al
00000D53  0000              add [bx+si],al
00000D55  0000              add [bx+si],al
00000D57  0000              add [bx+si],al
00000D59  0000              add [bx+si],al
00000D5B  0000              add [bx+si],al
00000D5D  0000              add [bx+si],al
00000D5F  0000              add [bx+si],al
00000D61  0000              add [bx+si],al
00000D63  0000              add [bx+si],al
00000D65  0000              add [bx+si],al
00000D67  0000              add [bx+si],al
00000D69  0000              add [bx+si],al
00000D6B  0000              add [bx+si],al
00000D6D  0000              add [bx+si],al
00000D6F  0000              add [bx+si],al
00000D71  0000              add [bx+si],al
00000D73  0000              add [bx+si],al
00000D75  0000              add [bx+si],al
00000D77  0000              add [bx+si],al
00000D79  0000              add [bx+si],al
00000D7B  0000              add [bx+si],al
00000D7D  0000              add [bx+si],al
00000D7F  0000              add [bx+si],al
00000D81  0000              add [bx+si],al
00000D83  0000              add [bx+si],al
00000D85  0000              add [bx+si],al
00000D87  0000              add [bx+si],al
00000D89  0000              add [bx+si],al
00000D8B  0000              add [bx+si],al
00000D8D  0000              add [bx+si],al
00000D8F  0000              add [bx+si],al
00000D91  0000              add [bx+si],al
00000D93  0000              add [bx+si],al
00000D95  0000              add [bx+si],al
00000D97  0000              add [bx+si],al
00000D99  0000              add [bx+si],al
00000D9B  0000              add [bx+si],al
00000D9D  0000              add [bx+si],al
00000D9F  0000              add [bx+si],al
00000DA1  0000              add [bx+si],al
00000DA3  0000              add [bx+si],al
00000DA5  0000              add [bx+si],al
00000DA7  0000              add [bx+si],al
00000DA9  0000              add [bx+si],al
00000DAB  0000              add [bx+si],al
00000DAD  0000              add [bx+si],al
00000DAF  0000              add [bx+si],al
00000DB1  0000              add [bx+si],al
00000DB3  0000              add [bx+si],al
00000DB5  0000              add [bx+si],al
00000DB7  0000              add [bx+si],al
00000DB9  0000              add [bx+si],al
00000DBB  0000              add [bx+si],al
00000DBD  0000              add [bx+si],al
00000DBF  0000              add [bx+si],al
00000DC1  0000              add [bx+si],al
00000DC3  0000              add [bx+si],al
00000DC5  0000              add [bx+si],al
00000DC7  0000              add [bx+si],al
00000DC9  0000              add [bx+si],al
00000DCB  0000              add [bx+si],al
00000DCD  0000              add [bx+si],al
00000DCF  0000              add [bx+si],al
00000DD1  0000              add [bx+si],al
00000DD3  0000              add [bx+si],al
00000DD5  0000              add [bx+si],al
00000DD7  0000              add [bx+si],al
00000DD9  0000              add [bx+si],al
00000DDB  0000              add [bx+si],al
00000DDD  0000              add [bx+si],al
00000DDF  0000              add [bx+si],al
00000DE1  0000              add [bx+si],al
00000DE3  0000              add [bx+si],al
00000DE5  0000              add [bx+si],al
00000DE7  0010              add [bx+si],dl
00000DE9  06                push es
00000DEA  0000              add [bx+si],al
00000DEC  0000              add [bx+si],al
00000DEE  0000              add [bx+si],al
00000DF0  D005              rol byte [di],1
00000DF2  0000              add [bx+si],al
00000DF4  0000              add [bx+si],al
00000DF6  0000              add [bx+si],al
00000DF8  0100              add [bx+si],ax
00000DFA  0000              add [bx+si],al
00000DFC  0000              add [bx+si],al
00000DFE  0000              add [bx+si],al
00000E00  0100              add [bx+si],ax
00000E02  0000              add [bx+si],al
00000E04  0000              add [bx+si],al
00000E06  0000              add [bx+si],al
00000E08  0C00              or al,0x0
00000E0A  0000              add [bx+si],al
00000E0C  0000              add [bx+si],al
00000E0E  0000              add [bx+si],al
00000E10  F00400            lock add al,0x0
00000E13  0000              add [bx+si],al
00000E15  0000              add [bx+si],al
00000E17  000D              add [di],cl
00000E19  0000              add [bx+si],al
00000E1B  0000              add [bx+si],al
00000E1D  0000              add [bx+si],al
00000E1F  00C4              add ah,al
00000E21  06                push es
00000E22  0000              add [bx+si],al
00000E24  0000              add [bx+si],al
00000E26  0000              add [bx+si],al
00000E28  1900              sbb [bx+si],ax
00000E2A  0000              add [bx+si],al
00000E2C  0000              add [bx+si],al
00000E2E  0000              add [bx+si],al
00000E30  E80D20            call 0x2e40
00000E33  0000              add [bx+si],al
00000E35  0000              add [bx+si],al
00000E37  001B              add [bp+di],bl
00000E39  0000              add [bx+si],al
00000E3B  0000              add [bx+si],al
00000E3D  0000              add [bx+si],al
00000E3F  0008              add [bx+si],cl
00000E41  0000              add [bx+si],al
00000E43  0000              add [bx+si],al
00000E45  0000              add [bx+si],al
00000E47  001A              add [bp+si],bl
00000E49  0000              add [bx+si],al
00000E4B  0000              add [bx+si],al
00000E4D  0000              add [bx+si],al
00000E4F  00F0              add al,dh
00000E51  0D2000            or ax,0x20
00000E54  0000              add [bx+si],al
00000E56  0000              add [bx+si],al
00000E58  1C00              sbb al,0x0
00000E5A  0000              add [bx+si],al
00000E5C  0000              add [bx+si],al
00000E5E  0000              add [bx+si],al
00000E60  0800              or [bx+si],al
00000E62  0000              add [bx+si],al
00000E64  0000              add [bx+si],al
00000E66  0000              add [bx+si],al
00000E68  F5                cmc
00000E69  FE                db 0xfe
00000E6A  FF6F00            jmp far [bx+0x0]
00000E6D  0000              add [bx+si],al
00000E6F  00980200          add [bx+si+0x2],bl
00000E73  0000              add [bx+si],al
00000E75  0000              add [bx+si],al
00000E77  0005              add [di],al
00000E79  0000              add [bx+si],al
00000E7B  0000              add [bx+si],al
00000E7D  0000              add [bx+si],al
00000E7F  006003            add [bx+si+0x3],ah
00000E82  0000              add [bx+si],al
00000E84  0000              add [bx+si],al
00000E86  0000              add [bx+si],al
00000E88  06                push es
00000E89  0000              add [bx+si],al
00000E8B  0000              add [bx+si],al
00000E8D  0000              add [bx+si],al
00000E8F  00B80200          add [bx+si+0x2],bh
00000E93  0000              add [bx+si],al
00000E95  0000              add [bx+si],al
00000E97  000A              add [bp+si],cl
00000E99  0000              add [bx+si],al
00000E9B  0000              add [bx+si],al
00000E9D  0000              add [bx+si],al
00000E9F  00840000          add [si+0x0],al
00000EA3  0000              add [bx+si],al
00000EA5  0000              add [bx+si],al
00000EA7  000B              add [bp+di],cl
00000EA9  0000              add [bx+si],al
00000EAB  0000              add [bx+si],al
00000EAD  0000              add [bx+si],al
00000EAF  0018              add [bx+si],bl
00000EB1  0000              add [bx+si],al
00000EB3  0000              add [bx+si],al
00000EB5  0000              add [bx+si],al
00000EB7  0015              add [di],dl
00000EB9  0000              add [bx+si],al
00000EBB  0000              add [bx+si],al
00000EBD  0000              add [bx+si],al
00000EBF  0000              add [bx+si],al
00000EC1  0000              add [bx+si],al
00000EC3  0000              add [bx+si],al
00000EC5  0000              add [bx+si],al
00000EC7  0003              add [bp+di],al
00000EC9  0000              add [bx+si],al
00000ECB  0000              add [bx+si],al
00000ECD  0000              add [bx+si],al
00000ECF  0000              add [bx+si],al
00000ED1  1020              adc [bx+si],ah
00000ED3  0000              add [bx+si],al
00000ED5  0000              add [bx+si],al
00000ED7  0002              add [bp+si],al
00000ED9  0000              add [bx+si],al
00000EDB  0000              add [bx+si],al
00000EDD  0000              add [bx+si],al
00000EDF  0018              add [bx+si],bl
00000EE1  0000              add [bx+si],al
00000EE3  0000              add [bx+si],al
00000EE5  0000              add [bx+si],al
00000EE7  0014              add [si],dl
00000EE9  0000              add [bx+si],al
00000EEB  0000              add [bx+si],al
00000EED  0000              add [bx+si],al
00000EEF  0007              add [bx],al
00000EF1  0000              add [bx+si],al
00000EF3  0000              add [bx+si],al
00000EF5  0000              add [bx+si],al
00000EF7  0017              add [bx],dl
00000EF9  0000              add [bx+si],al
00000EFB  0000              add [bx+si],al
00000EFD  0000              add [bx+si],al
00000EFF  00D8              add al,bl
00000F01  0400              add al,0x0
00000F03  0000              add [bx+si],al
00000F05  0000              add [bx+si],al
00000F07  0007              add [bx],al
00000F09  0000              add [bx+si],al
00000F0B  0000              add [bx+si],al
00000F0D  0000              add [bx+si],al
00000F0F  0018              add [bx+si],bl
00000F11  0400              add al,0x0
00000F13  0000              add [bx+si],al
00000F15  0000              add [bx+si],al
00000F17  0008              add [bx+si],cl
00000F19  0000              add [bx+si],al
00000F1B  0000              add [bx+si],al
00000F1D  0000              add [bx+si],al
00000F1F  00C0              add al,al
00000F21  0000              add [bx+si],al
00000F23  0000              add [bx+si],al
00000F25  0000              add [bx+si],al
00000F27  0009              add [bx+di],cl
00000F29  0000              add [bx+si],al
00000F2B  0000              add [bx+si],al
00000F2D  0000              add [bx+si],al
00000F2F  0018              add [bx+si],bl
00000F31  0000              add [bx+si],al
00000F33  0000              add [bx+si],al
00000F35  0000              add [bx+si],al
00000F37  00FB              add bl,bh
00000F39  FF                db 0xff
00000F3A  FF6F00            jmp far [bx+0x0]
00000F3D  0000              add [bx+si],al
00000F3F  0000              add [bx+si],al
00000F41  0000              add [bx+si],al
00000F43  0800              or [bx+si],al
00000F45  0000              add [bx+si],al
00000F47  00FE              add dh,bh
00000F49  FF                db 0xff
00000F4A  FF6F00            jmp far [bx+0x0]
00000F4D  0000              add [bx+si],al
00000F4F  00F8              add al,bh
00000F51  0300              add ax,[bx+si]
00000F53  0000              add [bx+si],al
00000F55  0000              add [bx+si],al
00000F57  00FF              add bh,bh
00000F59  FF                db 0xff
00000F5A  FF6F00            jmp far [bx+0x0]
00000F5D  0000              add [bx+si],al
00000F5F  0001              add [bx+di],al
00000F61  0000              add [bx+si],al
00000F63  0000              add [bx+si],al
00000F65  0000              add [bx+si],al
00000F67  00F0              add al,dh
00000F69  FF                db 0xff
00000F6A  FF6F00            jmp far [bx+0x0]
00000F6D  0000              add [bx+si],al
00000F6F  00E4              add ah,ah
00000F71  0300              add ax,[bx+si]
00000F73  0000              add [bx+si],al
00000F75  0000              add [bx+si],al
00000F77  00F9              add cl,bh
00000F79  FF                db 0xff
00000F7A  FF6F00            jmp far [bx+0x0]
00000F7D  0000              add [bx+si],al
00000F7F  0003              add [bp+di],al
00000F81  0000              add [bx+si],al
00000F83  0000              add [bx+si],al
00000F85  0000              add [bx+si],al
00000F87  0000              add [bx+si],al
00000F89  0000              add [bx+si],al
00000F8B  0000              add [bx+si],al
00000F8D  0000              add [bx+si],al
00000F8F  0000              add [bx+si],al
00000F91  0000              add [bx+si],al
00000F93  0000              add [bx+si],al
00000F95  0000              add [bx+si],al
00000F97  0000              add [bx+si],al
00000F99  0000              add [bx+si],al
00000F9B  0000              add [bx+si],al
00000F9D  0000              add [bx+si],al
00000F9F  0000              add [bx+si],al
00000FA1  0000              add [bx+si],al
00000FA3  0000              add [bx+si],al
00000FA5  0000              add [bx+si],al
00000FA7  0000              add [bx+si],al
00000FA9  0000              add [bx+si],al
00000FAB  0000              add [bx+si],al
00000FAD  0000              add [bx+si],al
00000FAF  0000              add [bx+si],al
00000FB1  0000              add [bx+si],al
00000FB3  0000              add [bx+si],al
00000FB5  0000              add [bx+si],al
00000FB7  0000              add [bx+si],al
00000FB9  0000              add [bx+si],al
00000FBB  0000              add [bx+si],al
00000FBD  0000              add [bx+si],al
00000FBF  0000              add [bx+si],al
00000FC1  0000              add [bx+si],al
00000FC3  0000              add [bx+si],al
00000FC5  0000              add [bx+si],al
00000FC7  0000              add [bx+si],al
00000FC9  0000              add [bx+si],al
00000FCB  0000              add [bx+si],al
00000FCD  0000              add [bx+si],al
00000FCF  0000              add [bx+si],al
00000FD1  0000              add [bx+si],al
00000FD3  0000              add [bx+si],al
00000FD5  0000              add [bx+si],al
00000FD7  0000              add [bx+si],al
00000FD9  0000              add [bx+si],al
00000FDB  0000              add [bx+si],al
00000FDD  0000              add [bx+si],al
00000FDF  0000              add [bx+si],al
00000FE1  0000              add [bx+si],al
00000FE3  0000              add [bx+si],al
00000FE5  0000              add [bx+si],al
00000FE7  0000              add [bx+si],al
00000FE9  0000              add [bx+si],al
00000FEB  0000              add [bx+si],al
00000FED  0000              add [bx+si],al
00000FEF  0000              add [bx+si],al
00000FF1  0000              add [bx+si],al
00000FF3  0000              add [bx+si],al
00000FF5  0000              add [bx+si],al
00000FF7  0000              add [bx+si],al
00000FF9  0000              add [bx+si],al
00000FFB  0000              add [bx+si],al
00000FFD  0000              add [bx+si],al
00000FFF  00F8              add al,bh
00001001  0D2000            or ax,0x20
00001004  0000              add [bx+si],al
00001006  0000              add [bx+si],al
00001008  0000              add [bx+si],al
0000100A  0000              add [bx+si],al
0000100C  0000              add [bx+si],al
0000100E  0000              add [bx+si],al
00001010  0000              add [bx+si],al
00001012  0000              add [bx+si],al
00001014  0000              add [bx+si],al
00001016  0000              add [bx+si],al
00001018  26050000          es add ax,0x0
0000101C  0000              add [bx+si],al
0000101E  0000              add [bx+si],al
00001020  0000              add [bx+si],al
00001022  0000              add [bx+si],al
00001024  0000              add [bx+si],al
00001026  0000              add [bx+si],al
00001028  2810              sub [bx+si],dl
0000102A  2000              and [bx+si],al
0000102C  0000              add [bx+si],al
0000102E  0000              add [bx+si],al
00001030  47                inc di
00001031  43                inc bx
00001032  43                inc bx
00001033  3A20              cmp ah,[bx+si]
00001035  28474E            sub [bx+0x4e],al
00001038  55                push bp
00001039  2920              sub [bx+si],sp
0000103B  382E312E          cmp [0x2e31],ch
0000103F  3000              xor [bx+si],al
00001041  2C00              sub al,0x0
00001043  0000              add [bx+si],al
00001045  0200              add al,[bx+si]
00001047  0000              add [bx+si],al
00001049  0000              add [bx+si],al
0000104B  0800              or [bx+si],al
0000104D  0000              add [bx+si],al
0000104F  0000              add [bx+si],al
00001051  150600            adc ax,0x6
00001054  0000              add [bx+si],al
00001056  0000              add [bx+si],al
00001058  002D              add [di],ch
0000105A  0000              add [bx+si],al
0000105C  0000              add [bx+si],al
0000105E  0000              add [bx+si],al
00001060  0000              add [bx+si],al
00001062  0000              add [bx+si],al
00001064  0000              add [bx+si],al
00001066  0000              add [bx+si],al
00001068  0000              add [bx+si],al
0000106A  0000              add [bx+si],al
0000106C  0000              add [bx+si],al
0000106E  0000              add [bx+si],al
00001070  006203            add [bp+si+0x3],ah
00001073  0000              add [bx+si],al
00001075  0400              add al,0x0
00001077  0000              add [bx+si],al
00001079  0000              add [bx+si],al
0000107B  0801              or [bx+di],al
0000107D  6C                insb
0000107E  0100              add [bx+si],ax
00001080  000C              add [si],cl
00001082  D101              rol word [bx+di],1
00001084  0000              add [bx+si],al
00001086  0C00              or al,0x0
00001088  0000              add [bx+si],al
0000108A  150600            adc ax,0x6
0000108D  0000              add [bx+si],al
0000108F  0000              add [bx+si],al
00001091  002D              add [di],ch
00001093  0000              add [bx+si],al
00001095  0000              add [bx+si],al
00001097  0000              add [bx+si],al
00001099  0000              add [bx+si],al
0000109B  0000              add [bx+si],al
0000109D  0002              add [bp+si],al
0000109F  6F                outsw
000010A0  0000              add [bx+si],al
000010A2  0002              add [bp+si],al
000010A4  D817              fcom dword [bx]
000010A6  3900              cmp [bx+si],ax
000010A8  0000              add [bx+si],al
000010AA  0308              add cx,[bx+si]
000010AC  07                pop es
000010AD  D801              fadd dword [bx+di]
000010AF  0000              add [bx+si],al
000010B1  0301              add ax,[bx+di]
000010B3  0802              or [bp+si],al
000010B5  0100              add [bx+si],ax
000010B7  0003              add [bp+di],al
000010B9  0207              add al,[bx]
000010BB  59                pop cx
000010BC  0100              add [bx+si],ax
000010BE  0003              add [bp+di],al
000010C0  0407              add al,0x7
000010C2  DD01              fld qword [bx+di]
000010C4  0000              add [bx+si],al
000010C6  0301              add ax,[bx+di]
000010C8  06                push es
000010C9  0401              add al,0x1
000010CB  0000              add [bx+si],al
000010CD  0302              add ax,[bp+si]
000010CF  056500            add ax,0x65
000010D2  0000              add [bx+si],al
000010D4  0404              add al,0x4
000010D6  05696E            add ax,0x6e69
000010D9  7400              jz 0x10db
000010DB  0308              add cx,[bx+si]
000010DD  05BB00            add ax,0xbb
000010E0  0000              add [bx+si],al
000010E2  0202              add al,[bp+si]
000010E4  0200              add al,[bx+si]
000010E6  0003              add [bp+di],al
000010E8  8C19              mov [bx+di],ds
000010EA  6A00              push byte +0x0
000010EC  0000              add [bx+si],al
000010EE  02F8              add bh,al
000010F0  0100              add [bx+si],ax
000010F2  0003              add [bp+di],al
000010F4  8D1B              lea bx,[bp+di]
000010F6  6A00              push byte +0x0
000010F8  0000              add [bx+si],al
000010FA  050806            add ax,0x608
000010FD  08910000          or [bx+di+0x0],dl
00001101  0003              add [bp+di],al
00001103  01060B01          add [0x10b],ax
00001107  0000              add [bx+si],al
00001109  07                pop es
0000110A  91                xchg ax,cx
0000110B  0000              add [bx+si],al
0000110D  0008              add [bx+si],cl
0000110F  F9                stc
00001110  0000              add [bx+si],al
00001112  00D8              add al,bl
00001114  04F5              add al,0xf5
00001116  083B              or [bp+di],bh
00001118  0200              add al,[bx+si]
0000111A  0009              add [bx+di],cl
0000111C  8400              test [bx+si],al
0000111E  0000              add [bx+si],al
00001120  04F6              add al,0xf6
00001122  07                pop es
00001123  6300              arpl [bx+si],ax
00001125  0000              add [bx+si],al
00001127  0009              add [bx+di],cl
00001129  4C                dec sp
0000112A  0100              add [bx+si],ax
0000112C  0004              add [si],al
0000112E  FB                sti
0000112F  098B0000          or [bp+di+0x0],cx
00001133  0008              add [bx+si],cl
00001135  09A10000          or [bx+di+0x0],sp
00001139  0004              add [si],al
0000113B  FC                cld
0000113C  098B0000          or [bp+di+0x0],cx
00001140  0010              add [bx+si],dl
00001142  0935              or [di],si
00001144  0200              add al,[bx+si]
00001146  0004              add [si],al
00001148  FD                std
00001149  098B0000          or [bp+di+0x0],cx
0000114D  0018              add [bx+si],bl
0000114F  0934              or [si],si
00001151  0100              add [bx+si],ax
00001153  0004              add [si],al
00001155  FE09              dec byte [bx+di]
00001157  8B00              mov ax,[bx+si]
00001159  0000              add [bx+si],al
0000115B  2009              and [bx+di],cl
0000115D  7600              jna 0x115f
0000115F  0000              add [bx+si],al
00001161  04FF              add al,0xff
00001163  098B0000          or [bp+di+0x0],cx
00001167  0028              add [bx+si],ch
00001169  0AEA              or ch,dl
0000116B  0100              add [bx+si],ax
0000116D  0004              add [si],al
0000116F  0001              add [bx+di],al
00001171  098B0000          or [bp+di+0x0],cx
00001175  0030              add [bx+si],dh
00001177  0A8B0000          or cl,[bp+di+0x0]
0000117B  0004              add [si],al
0000117D  0101              add [bx+di],ax
0000117F  098B0000          or [bp+di+0x0],cx
00001183  0038              add [bx+si],bh
00001185  0A00              or al,[bx+si]
00001187  0000              add [bx+si],al
00001189  0004              add [si],al
0000118B  0201              add al,[bx+di]
0000118D  098B0000          or [bp+di+0x0],cx
00001191  00400A            add [bx+si+0xa],al
00001194  52                push dx
00001195  0200              add al,[bx+si]
00001197  0004              add [si],al
00001199  0401              add al,0x1
0000119B  098B0000          or [bp+di+0x0],cx
0000119F  00480A            add [bx+si+0xa],cl
000011A2  1102              adc [bp+si],ax
000011A4  0000              add [bx+si],al
000011A6  0405              add al,0x5
000011A8  0109              add [bx+di],cx
000011AA  8B00              mov ax,[bx+si]
000011AC  0000              add [bx+si],al
000011AE  50                push ax
000011AF  0A5800            or bl,[bx+si+0x0]
000011B2  0000              add [bx+si],al
000011B4  0406              add al,0x6
000011B6  0109              add [bx+di],cx
000011B8  8B00              mov ax,[bx+si]
000011BA  0000              add [bx+si],al
000011BC  58                pop ax
000011BD  0A980000          or bl,[bx+si+0x0]
000011C1  0004              add [si],al
000011C3  0801              or [bx+di],al
000011C5  16                push ss
000011C6  7802              js 0x11ca
000011C8  0000              add [bx+si],al
000011CA  60                pusha
000011CB  0A0A              or cl,[bp+si]
000011CD  0200              add al,[bx+si]
000011CF  0004              add [si],al
000011D1  0A01              or al,[bx+di]
000011D3  147E              adc al,0x7e
000011D5  0200              add al,[bx+si]
000011D7  00680A            add [bx+si+0xa],ch
000011DA  6C                insb
000011DB  0200              add al,[bx+si]
000011DD  0004              add [si],al
000011DF  0C01              or al,0x1
000011E1  07                pop es
000011E2  6300              arpl [bx+si],ax
000011E4  0000              add [bx+si],al
000011E6  700A              jo 0x11f2
000011E8  27                daa
000011E9  0200              add al,[bx+si]
000011EB  0004              add [si],al
000011ED  1001              adc [bx+di],al
000011EF  07                pop es
000011F0  6300              arpl [bx+si],ax
000011F2  0000              add [bx+si],al
000011F4  740A              jz 0x1200
000011F6  43                inc bx
000011F7  0000              add [bx+si],al
000011F9  0004              add [si],al
000011FB  1201              adc al,[bx+di]
000011FD  0D7100            or ax,0x71
00001200  0000              add [bx+si],al
00001202  780A              js 0x120e
00001204  C400              les ax,[bx+si]
00001206  0000              add [bx+si],al
00001208  0416              add al,0x16
0000120A  0112              add [bp+si],dx
0000120C  47                inc di
0000120D  0000              add [bx+si],al
0000120F  00800A43          add [bx+si+0x430a],al
00001213  0200              add al,[bx+si]
00001215  0004              add [si],al
00001217  17                pop ss
00001218  010F              add [bx],cx
0000121A  55                push bp
0000121B  0000              add [bx+si],al
0000121D  00820A2A          add [bp+si+0x2a0a],al
00001221  0100              add [bx+si],ax
00001223  0004              add [si],al
00001225  1801              sbb [bx+di],al
00001227  08840200          or [si+0x2],al
0000122B  00830AB5          add [bp+di-0x4af6],al
0000122F  0000              add [bx+si],al
00001231  0004              add [si],al
00001233  1C01              sbb al,0x1
00001235  0F9402            setz [bp+si]
00001238  0000              add [bx+si],al
0000123A  880A              mov [bp+si],cl
0000123C  47                inc di
0000123D  0000              add [bx+si],al
0000123F  0004              add [si],al
00001241  25010F            and ax,0xf01
00001244  7D00              jnl 0x1246
00001246  0000              add [bx+si],al
00001248  90                nop
00001249  0AAE0100          or ch,[bp+0x1]
0000124D  0004              add [si],al
0000124F  2D0109            sub ax,0x901
00001252  8900              mov [bx+si],ax
00001254  0000              add [bx+si],al
00001256  98                cbw
00001257  0AB50100          or dh,[di+0x1]
0000125B  0004              add [si],al
0000125D  2E0109            add [cs:bx+di],cx
00001260  8900              mov [bx+si],ax
00001262  0000              add [bx+si],al
00001264  A00ABC            mov al,[0xbc0a]
00001267  0100              add [bx+si],ax
00001269  0004              add [si],al
0000126B  2F                das
0000126C  0109              add [bx+di],cx
0000126E  8900              mov [bx+si],ax
00001270  0000              add [bx+si],al
00001272  A80A              test al,0xa
00001274  C3                ret
00001275  0100              add [bx+si],ax
00001277  0004              add [si],al
00001279  3001              xor [bx+di],al
0000127B  09890000          or [bx+di+0x0],cx
0000127F  00B00ACA          add [bx+si-0x35f6],dh
00001283  0100              add [bx+si],ax
00001285  0004              add [si],al
00001287  3201              xor al,[bx+di]
00001289  0A2D              or ch,[di]
0000128B  0000              add [bx+si],al
0000128D  00B80A2F          add [bx+si+0x2f0a],bh
00001291  0200              add al,[bx+si]
00001293  0004              add [si],al
00001295  3301              xor ax,[bx+di]
00001297  07                pop es
00001298  6300              arpl [bx+si],ax
0000129A  0000              add [bx+si],al
0000129C  C00A43            ror byte [bp+si],byte 0x43
0000129F  0100              add [bx+si],ax
000012A1  0004              add [si],al
000012A3  350108            xor ax,0x801
000012A6  9A020000C4        call 0xc400:0x2
000012AB  000B              add [bp+di],cl
000012AD  8B02              mov ax,[bp+si]
000012AF  0000              add [bx+si],al
000012B1  049A              add al,0x9a
000012B3  0E                push cs
000012B4  081F              or [bx],bl
000012B6  0100              add [bx+si],ax
000012B8  0018              add [bx+si],bl
000012BA  04A0              add al,0xa0
000012BC  087802            or [bx+si+0x2],bh
000012BF  0000              add [bx+si],al
000012C1  09A80100          or [bx+si+0x1],bp
000012C5  0004              add [si],al
000012C7  A11678            mov ax,[0x7816]
000012CA  0200              add al,[bx+si]
000012CC  0000              add [bx+si],al
000012CE  09F3              or bx,si
000012D0  0000              add [bx+si],al
000012D2  0004              add [si],al
000012D4  A2147E            mov [0x7e14],al
000012D7  0200              add al,[bx+si]
000012D9  0008              add [bx+si],cl
000012DB  09EE              or si,bp
000012DD  0000              add [bx+si],al
000012DF  0004              add [si],al
000012E1  A6                cmpsb
000012E2  07                pop es
000012E3  6300              arpl [bx+si],ax
000012E5  0000              add [bx+si],al
000012E7  1000              adc [bx+si],al
000012E9  06                push es
000012EA  084302            or [bp+di+0x2],al
000012ED  0000              add [bx+si],al
000012EF  06                push es
000012F0  089D0000          or [di+0x0],bl
000012F4  000C              add [si],cl
000012F6  91                xchg ax,cx
000012F7  0000              add [bx+si],al
000012F9  00940200          add [si+0x2],dl
000012FD  000D              add [di],cl
000012FF  3900              cmp [bx+si],ax
00001301  0000              add [bx+si],al
00001303  0000              add [bx+si],al
00001305  06                push es
00001306  083B              or [bp+di],bh
00001308  0200              add al,[bx+si]
0000130A  000C              add [si],cl
0000130C  91                xchg ax,cx
0000130D  0000              add [bx+si],al
0000130F  00AA0200          add [bp+si+0x2],ch
00001313  000D              add [di],cl
00001315  3900              cmp [bx+si],ax
00001317  0000              add [bx+si],al
00001319  1300              adc ax,[bx+si]
0000131B  0E                push cs
0000131C  E000              loopne 0x131e
0000131E  0000              add [bx+si],al
00001320  0F1001            movups xmm0,oword [bx+di]
00001323  0000              add [bx+si],al
00001325  043F              add al,0x3f
00001327  011D              add [di],bx
00001329  AA                stosb
0000132A  0200              add al,[bx+si]
0000132C  000F              add [bx],cl
0000132E  7B02              jpo 0x1332
00001330  0000              add [bx+si],al
00001332  0440              add al,0x40
00001334  011D              add [di],bx
00001336  AA                stosb
00001337  0200              add al,[bx+si]
00001339  000F              add [bx],cl
0000133B  D000              rol byte [bx+si],1
0000133D  0000              add [bx+si],al
0000133F  0441              add al,0x41
00001341  011D              add [di],bx
00001343  AA                stosb
00001344  0200              add al,[bx+si]
00001346  00060898          add [0x9808],al
0000134A  0000              add [bx+si],al
0000134C  0007              add [bx],al
0000134E  D6                salc
0000134F  0200              add al,[bx+si]
00001351  0010              add [bx+si],dl
00001353  2102              and [bp+si],ax
00001355  0000              add [bx+si],al
00001357  058719            add ax,0x1987
0000135A  7E02              jng 0x135e
0000135C  0000              add [bx+si],al
0000135E  107402            adc [si+0x2],dh
00001361  0000              add [bx+si],al
00001363  058819            add ax,0x1988
00001366  7E02              jng 0x136a
00001368  0000              add [bx+si],al
0000136A  10AE0000          adc [bp+0x0],ch
0000136E  0005              add [di],al
00001370  8919              mov [bx+di],bx
00001372  7E02              jng 0x1376
00001374  0000              add [bx+si],al
00001376  104F00            adc [bx+0x0],cl
00001379  0000              add [bx+si],al
0000137B  06                push es
0000137C  1A0C              sbb cl,[si]
0000137E  6300              arpl [bx+si],ax
00001380  0000              add [bx+si],al
00001382  0CDC              or al,0xdc
00001384  0200              add al,[bx+si]
00001386  001C              add [si],bl
00001388  0300              add ax,[bx+si]
0000138A  0011              add [bx+di],dl
0000138C  0007              add [bx],al
0000138E  1103              adc [bp+di],ax
00001390  0000              add [bx+si],al
00001392  106002            adc [bx+si+0x2],ah
00001395  0000              add [bx+si],al
00001397  06                push es
00001398  1B1A              sbb bx,[bp+si]
0000139A  1C03              sbb al,0x3
0000139C  0000              add [bx+si],al
0000139E  12A30100          adc ah,[bp+di+0x1]
000013A2  0001              add [bx+di],al
000013A4  0A05              or al,[di]
000013A6  6300              arpl [bx+si],ax
000013A8  0000              add [bx+si],al
000013AA  2D0600            sub ax,0x6
000013AD  0000              add [bx+si],al
000013AF  0000              add [bx+si],al
000013B1  0015              add [di],dl
000013B3  0000              add [bx+si],al
000013B5  0000              add [bx+si],al
000013B7  0000              add [bx+si],al
000013B9  0001              add [bx+di],al
000013BB  9C                pushf
000013BC  139A0100          adc bx,[bp+si+0x1]
000013C0  0001              add [bx+di],al
000013C2  03061506          add ax,[0x615]
000013C6  0000              add [bx+si],al
000013C8  0000              add [bx+si],al
000013CA  0000              add [bx+si],al
000013CC  1800              sbb [bx+si],al
000013CE  0000              add [bx+si],al
000013D0  0000              add [bx+si],al
000013D2  0000              add [bx+si],al
000013D4  019C0001          add [si+0x100],bx
000013D8  1101              adc [bx+di],ax
000013DA  250E13            and ax,0x130e
000013DD  0B03              or ax,[bp+di]
000013DF  0E                push cs
000013E0  1B0E1101          sbb cx,[0x111]
000013E4  1207              adc al,[bx]
000013E6  1017              adc [bx],dl
000013E8  0000              add [bx+si],al
000013EA  02160003          add dl,[0x300]
000013EE  0E                push cs
000013EF  3A0B              cmp cl,[bp+di]
000013F1  3B0B              cmp cx,[bp+di]
000013F3  390B              cmp [bp+di],cx
000013F5  49                dec cx
000013F6  1300              adc ax,[bx+si]
000013F8  0003              add [bp+di],al
000013FA  2400              and al,0x0
000013FC  0B0B              or cx,[bp+di]
000013FE  3E0B03            or ax,[ds:bp+di]
00001401  0E                push cs
00001402  0000              add [bx+si],al
00001404  0424              add al,0x24
00001406  000B              add [bp+di],cl
00001408  0B3E0B03          or di,[0x30b]
0000140C  0800              or [bx+si],al
0000140E  0005              add [di],al
00001410  0F000B            str [bp+di]
00001413  0B00              or ax,[bx+si]
00001415  00060F00          add [0xf],al
00001419  0B0B              or cx,[bp+di]
0000141B  49                dec cx
0000141C  1300              adc ax,[bx+si]
0000141E  0007              add [bx],al
00001420  26004913          add [es:bx+di+0x13],cl
00001424  0000              add [bx+si],al
00001426  0813              or [bp+di],dl
00001428  0103              add [bp+di],ax
0000142A  0E                push cs
0000142B  0B0B              or cx,[bp+di]
0000142D  3A0B              cmp cl,[bp+di]
0000142F  3B0B              cmp cx,[bp+di]
00001431  390B              cmp [bp+di],cx
00001433  0113              add [bp+di],dx
00001435  0000              add [bx+si],al
00001437  090D              or [di],cx
00001439  0003              add [bp+di],al
0000143B  0E                push cs
0000143C  3A0B              cmp cl,[bp+di]
0000143E  3B0B              cmp cx,[bp+di]
00001440  390B              cmp [bp+di],cx
00001442  49                dec cx
00001443  1338              adc di,[bx+si]
00001445  0B00              or ax,[bx+si]
00001447  000A              add [bp+si],cl
00001449  0D0003            or ax,0x300
0000144C  0E                push cs
0000144D  3A0B              cmp cl,[bp+di]
0000144F  3B05              cmp ax,[di]
00001451  390B              cmp [bp+di],cx
00001453  49                dec cx
00001454  1338              adc di,[bx+si]
00001456  0B00              or ax,[bx+si]
00001458  000B              add [bp+di],cl
0000145A  16                push ss
0000145B  0003              add [bp+di],al
0000145D  0E                push cs
0000145E  3A0B              cmp cl,[bp+di]
00001460  3B0B              cmp cx,[bp+di]
00001462  390B              cmp [bp+di],cx
00001464  0000              add [bx+si],al
00001466  0C01              or al,0x1
00001468  014913            add [bx+di+0x13],cx
0000146B  0113              add [bp+di],dx
0000146D  0000              add [bx+si],al
0000146F  0D2100            or ax,0x21
00001472  49                dec cx
00001473  132F              adc bp,[bx]
00001475  0B00              or ax,[bx+si]
00001477  000E1300          add [0x13],cl
0000147B  030E3C19          add cx,[0x193c]
0000147F  0000              add [bx+si],al
00001481  0F34              sysenter
00001483  0003              add [bp+di],al
00001485  0E                push cs
00001486  3A0B              cmp cl,[bp+di]
00001488  3B05              cmp ax,[di]
0000148A  390B              cmp [bp+di],cx
0000148C  49                dec cx
0000148D  133F              adc di,[bx]
0000148F  193C              sbb [si],di
00001491  1900              sbb [bx+si],ax
00001493  0010              add [bx+si],dl
00001495  3400              xor al,0x0
00001497  030E3A0B          add cx,[0xb3a]
0000149B  3B0B              cmp cx,[bp+di]
0000149D  390B              cmp [bp+di],cx
0000149F  49                dec cx
000014A0  133F              adc di,[bx]
000014A2  193C              sbb [si],di
000014A4  1900              sbb [bx+si],ax
000014A6  0011              add [bx+di],dl
000014A8  2100              and [bx+si],ax
000014AA  0000              add [bx+si],al
000014AC  122E003F          adc ch,[0x3f00]
000014B0  1903              sbb [bp+di],ax
000014B2  0E                push cs
000014B3  3A0B              cmp cl,[bp+di]
000014B5  3B0B              cmp cx,[bp+di]
000014B7  390B              cmp [bp+di],cx
000014B9  49                dec cx
000014BA  1311              adc dx,[bx+di]
000014BC  0112              add [bp+si],dx
000014BE  07                pop es
000014BF  40                inc ax
000014C0  18964219          sbb [bp+0x1942],dl
000014C4  0000              add [bx+si],al
000014C6  132E003F          adc bp,[0x3f00]
000014CA  1903              sbb [bp+di],ax
000014CC  0E                push cs
000014CD  3A0B              cmp cl,[bp+di]
000014CF  3B0B              cmp cx,[bp+di]
000014D1  390B              cmp [bp+di],cx
000014D3  1101              adc [bx+di],ax
000014D5  1207              adc al,[bx]
000014D7  40                inc ax
000014D8  18964219          sbb [bp+0x1942],dl
000014DC  0000              add [bx+si],al
000014DE  00CE              add dh,cl
000014E0  0000              add [bx+si],al
000014E2  0002              add [bp+si],al
000014E4  00A90000          add [bx+di+0x0],ch
000014E8  0001              add [bx+di],al
000014EA  01FB              add bx,di
000014EC  0E                push cs
000014ED  0D0001            or ax,0x100
000014F0  0101              add [bx+di],ax
000014F2  0100              add [bx+si],ax
000014F4  0000              add [bx+si],al
000014F6  0100              add [bx+si],ax
000014F8  0001              add [bx+di],al
000014FA  2F                das
000014FB  7573              jnz 0x1570
000014FD  722F              jc 0x152e
000014FF  6C                insb
00001500  69622F6763        imul sp,[bp+si+0x2f],word 0x6367
00001505  632F              arpl [bx],bp
00001507  7838              js 0x1541
00001509  365F              ss pop di
0000150B  36342D            ss xor al,0x2d
0000150E  7063              jo 0x1573
00001510  2D6C69            sub ax,0x696c
00001513  6E                outsb
00001514  7578              jnz 0x158e
00001516  2D676E            sub ax,0x6e67
00001519  752F              jnz 0x154a
0000151B  382E312E          cmp [0x2e31],ch
0000151F  302F              xor [bx],ch
00001521  696E636C75        imul bp,[bp+0x63],word 0x756c
00001526  6465002F          add [gs:bx],ch
0000152A  7573              jnz 0x159f
0000152C  722F              jc 0x155d
0000152E  696E636C75        imul bp,[bp+0x63],word 0x756c
00001533  64652F            gs das
00001536  626974            bound bp,[bx+di+0x74]
00001539  7300              jnc 0x153b
0000153B  2F                das
0000153C  7573              jnz 0x15b1
0000153E  722F              jc 0x156f
00001540  696E636C75        imul bp,[bp+0x63],word 0x756c
00001545  64650000          add [gs:bx+si],al
00001549  6D                insw
0000154A  61                popa
0000154B  696E2E6300        imul bp,[bp+0x2e],word 0x63
00001550  0000              add [bx+si],al
00001552  007374            add [bp+di+0x74],dh
00001555  646465662E680001  cs push dword 0x100
         -0000
0000155F  7479              jz 0x15da
00001561  7065              jo 0x15c8
00001563  732E              jnc 0x1593
00001565  680002            push word 0x200
00001568  0000              add [bx+si],al
0000156A  6C                insb
0000156B  6962696F2E        imul sp,[bp+si+0x69],word 0x2e6f
00001570  680002            push word 0x200
00001573  0000              add [bx+si],al
00001575  7374              jnc 0x15eb
00001577  64696F2E6800      imul bp,[fs:bx+0x2e],word 0x68
0000157D  0300              add ax,[bx+si]
0000157F  007379            add [bp+di+0x79],dh
00001582  735F              jnc 0x15e3
00001584  657272            gs jc 0x15f9
00001587  6C                insb
00001588  6973742E68        imul si,[bp+di+0x74],word 0x682e
0000158D  0002              add [bp+si],al
0000158F  0000              add [bx+si],al
00001591  0005              add [di],al
00001593  1000              adc [bx+si],al
00001595  0902              or [bp+si],ax
00001597  150600            adc ax,0x6
0000159A  0000              add [bx+si],al
0000159C  0000              add [bx+si],al
0000159E  0014              add [si],dl
000015A0  05014B            add ax,0x4b01
000015A3  0814              or [si],dl
000015A5  050B40            add ax,0x400b
000015A8  05014C            add ax,0x4c01
000015AB  E602              out 0x2,al
000015AD  0200              add al,[bx+si]
000015AF  0101              add [bx+di],ax
000015B1  5F                pop di
000015B2  49                dec cx
000015B3  4F                dec di
000015B4  5F                pop di
000015B5  627566            bound si,[di+0x66]
000015B8  5F                pop di
000015B9  656E              gs outsb
000015BB  64002F            add [fs:bx],ch
000015BE  686F6D            push word 0x6d6f
000015C1  652F              gs das
000015C3  6C                insb
000015C4  752D              jnz 0x15f3
000015C6  7969              jns 0x1631
000015C8  2D6873            sub ax,0x7368
000015CB  756E              jnz 0x163b
000015CD  2F                das
000015CE  57                push di
000015CF  6F                outsw
000015D0  726B              jc 0x163d
000015D2  53                push bx
000015D3  7061              jo 0x1636
000015D5  63652F            arpl [di+0x2f],sp
000015D8  47                inc di
000015D9  6974487562        imul si,[si+0x48],word 0x6275
000015DE  2F                das
000015DF  686F6D            push word 0x6d6f
000015E2  652F              gs das
000015E4  646F              fs outsw
000015E6  63732F            arpl [bp+di+0x2f],si
000015E9  43                inc bx
000015EA  2F                das
000015EB  7072              jo 0x165f
000015ED  61                popa
000015EE  637469            arpl [si+0x69],si
000015F1  636500            arpl [di+0x0],sp
000015F4  5F                pop di
000015F5  6F                outsw
000015F6  6C                insb
000015F7  645F              fs pop di
000015F9  6F                outsw
000015FA  66667365          o32 jnc 0x1663
000015FE  7400              jz 0x1600
00001600  7379              jnc 0x167b
00001602  735F              jnc 0x1663
00001604  6E                outsb
00001605  657272            gs jc 0x167a
00001608  005F49            add [bx+0x49],bl
0000160B  4F                dec di
0000160C  5F                pop di
0000160D  7361              jnc 0x1670
0000160F  7665              jna 0x1676
00001611  5F                pop di
00001612  656E              gs outsb
00001614  64007368          add [fs:bp+di+0x68],dh
00001618  6F                outsw
00001619  7274              jc 0x168f
0000161B  20696E            and [bx+di+0x6e],ch
0000161E  7400              jz 0x1620
00001620  7369              jnc 0x168b
00001622  7A65              jpe 0x1689
00001624  5F                pop di
00001625  7400              jz 0x1627
00001627  5F                pop di
00001628  49                dec cx
00001629  4F                dec di
0000162A  5F                pop di
0000162B  7772              ja 0x169f
0000162D  6974655F70        imul si,[si+0x65],word 0x705f
00001632  7472              jz 0x16a6
00001634  005F66            add [bx+0x66],bl
00001637  6C                insb
00001638  61                popa
00001639  677300            jnc 0x163c
0000163C  5F                pop di
0000163D  49                dec cx
0000163E  4F                dec di
0000163F  5F                pop di
00001640  627566            bound si,[di+0x66]
00001643  5F                pop di
00001644  626173            bound sp,[bx+di+0x73]
00001647  65005F6D          add [gs:bx+0x6d],bl
0000164B  61                popa
0000164C  726B              jc 0x16b9
0000164E  657273            gs jc 0x16c4
00001651  005F49            add [bx+0x49],bl
00001654  4F                dec di
00001655  5F                pop di
00001656  7265              jc 0x16bd
00001658  61                popa
00001659  645F              fs pop di
0000165B  656E              gs outsb
0000165D  64007374          add [fs:bp+di+0x74],dh
00001661  64657272          gs jc 0x16d7
00001665  005F6C            add [bx+0x6c],bl
00001668  6F                outsw
00001669  636B00            arpl [bp+di+0x0],bp
0000166C  6C                insb
0000166D  6F                outsw
0000166E  6E                outsb
0000166F  6720696E          and [ecx+0x6e],ch
00001673  7400              jz 0x1675
00001675  5F                pop di
00001676  637572            arpl [di+0x72],si
00001679  5F                pop di
0000167A  636F6C            arpl [bx+0x6c],bp
0000167D  756D              jnz 0x16ec
0000167F  6E                outsb
00001680  005F49            add [bx+0x49],bl
00001683  4F                dec di
00001684  5F                pop di
00001685  325F31            xor bl,[bx+0x31]
00001688  5F                pop di
00001689  7374              jnc 0x16ff
0000168B  64657272          gs jc 0x1701
0000168F  5F                pop di
00001690  005F49            add [bx+0x49],bl
00001693  4F                dec di
00001694  5F                pop di
00001695  46                inc si
00001696  49                dec cx
00001697  4C                dec sp
00001698  45                inc bp
00001699  5F                pop di
0000169A  706C              jo 0x1708
0000169C  7573              jnz 0x1711
0000169E  005F70            add [bx+0x70],bl
000016A1  6F                outsw
000016A2  7300              jnc 0x16a4
000016A4  5F                pop di
000016A5  7362              jnc 0x1709
000016A7  7566              jnz 0x170f
000016A9  005F49            add [bx+0x49],bl
000016AC  4F                dec di
000016AD  5F                pop di
000016AE  46                inc si
000016AF  49                dec cx
000016B0  4C                dec sp
000016B1  45                inc bp
000016B2  00756E            add [di+0x6e],dh
000016B5  7369              jnc 0x1720
000016B7  676E              a32 outsb
000016B9  6564206368        and [fs:bp+di+0x68],ah
000016BE  61                popa
000016BF  7200              jc 0x16c1
000016C1  5F                pop di
000016C2  49                dec cx
000016C3  4F                dec di
000016C4  5F                pop di
000016C5  325F31            xor bl,[bx+0x31]
000016C8  5F                pop di
000016C9  7374              jnc 0x173f
000016CB  64696E5F005F      imul bp,[fs:bp+0x5f],word 0x5f00
000016D1  49                dec cx
000016D2  4F                dec di
000016D3  5F                pop di
000016D4  6D                insw
000016D5  61                popa
000016D6  726B              jc 0x1743
000016D8  657200            gs jc 0x16db
000016DB  5F                pop di
000016DC  7368              jnc 0x1746
000016DE  6F                outsw
000016DF  7274              jc 0x1755
000016E1  627566            bound si,[di+0x66]
000016E4  005F49            add [bx+0x49],bl
000016E7  4F                dec di
000016E8  5F                pop di
000016E9  7772              ja 0x175d
000016EB  6974655F62        imul si,[si+0x65],word 0x625f
000016F0  61                popa
000016F1  7365              jnc 0x1758
000016F3  005F75            add [bx+0x75],bl
000016F6  6E                outsb
000016F7  7573              jnz 0x176c
000016F9  65643200          xor al,[fs:bx+si]
000016FD  5F                pop di
000016FE  49                dec cx
000016FF  4F                dec di
00001700  5F                pop di
00001701  7265              jc 0x1768
00001703  61                popa
00001704  645F              fs pop di
00001706  7074              jo 0x177c
00001708  7200              jc 0x170a
0000170A  7368              jnc 0x1774
0000170C  6F                outsw
0000170D  7274              jc 0x1783
0000170F  20756E            and [di+0x6e],dh
00001712  7369              jnc 0x177d
00001714  676E              a32 outsb
00001716  656420696E        and [fs:bx+di+0x6e],ch
0000171B  7400              jz 0x171d
0000171D  47                inc di
0000171E  4E                dec si
0000171F  55                push bp
00001720  204331            and [bp+di+0x31],al
00001723  37                aaa
00001724  2038              and [bx+si],bh
00001726  2E312E3020        xor [cs:0x2030],bp
0000172B  2D6D74            sub ax,0x746d
0000172E  756E              jnz 0x179e
00001730  653D6765          gs cmp ax,0x6567
00001734  6E                outsb
00001735  657269            gs jc 0x17a1
00001738  6320              arpl [bx+si],sp
0000173A  2D6D61            sub ax,0x616d
0000173D  7263              jc 0x17a2
0000173F  683D78            push word 0x783d
00001742  38362D36          cmp [0x362d],dh
00001746  3420              xor al,0x20
00001748  2D6700            sub ax,0x67
0000174B  66756E            o32 jnz 0x17bc
0000174E  637469            arpl [si+0x69],si
00001751  6F                outsw
00001752  6E                outsb
00001753  006D61            add [di+0x61],ch
00001756  696E005F6E        imul bp,[bp+0x0],word 0x6e5f
0000175B  657874            gs js 0x17d2
0000175E  005F5F            add [bx+0x5f],bl
00001761  7061              jo 0x17c4
00001763  643100            xor [fs:bx+si],ax
00001766  5F                pop di
00001767  5F                pop di
00001768  7061              jo 0x17cb
0000176A  643200            xor al,[fs:bx+si]
0000176D  5F                pop di
0000176E  5F                pop di
0000176F  7061              jo 0x17d2
00001771  643300            xor ax,[fs:bx+si]
00001774  5F                pop di
00001775  5F                pop di
00001776  7061              jo 0x17d9
00001778  643400            fs xor al,0x0
0000177B  5F                pop di
0000177C  5F                pop di
0000177D  7061              jo 0x17e0
0000177F  6435006D          fs xor ax,0x6d00
00001783  61                popa
00001784  696E2E6300        imul bp,[bp+0x2e],word 0x63
00001789  6C                insb
0000178A  6F                outsw
0000178B  6E                outsb
0000178C  6720756E          and [ebp+0x6e],dh
00001790  7369              jnc 0x17fb
00001792  676E              a32 outsb
00001794  656420696E        and [fs:bx+di+0x6e],ch
00001799  7400              jz 0x179b
0000179B  5F                pop di
0000179C  49                dec cx
0000179D  4F                dec di
0000179E  5F                pop di
0000179F  7772              ja 0x1813
000017A1  6974655F65        imul si,[si+0x65],word 0x655f
000017A6  6E                outsb
000017A7  64005F5F          add [fs:bx+0x5f],bl
000017AB  6F                outsw
000017AC  666636345F        ss o32 xor al,0x5f
000017B1  7400              jz 0x17b3
000017B3  5F                pop di
000017B4  5F                pop di
000017B5  6F                outsw
000017B6  66665F            pop edi
000017B9  7400              jz 0x17bb
000017BB  5F                pop di
000017BC  636861            arpl [bx+si+0x61],bp
000017BF  696E005F49        imul bp,[bp+0x0],word 0x495f
000017C4  4F                dec di
000017C5  5F                pop di
000017C6  626163            bound sp,[bx+di+0x63]
000017C9  6B75705F          imul si,[di+0x70],byte +0x5f
000017CD  626173            bound sp,[bx+di+0x73]
000017D0  65007374          add [gs:bp+di+0x74],dh
000017D4  64696E005F66      imul bp,[fs:bp+0x0],word 0x665f
000017DA  6C                insb
000017DB  61                popa
000017DC  677332            jnc 0x1811
000017DF  005F6D            add [bx+0x6d],bl
000017E2  6F                outsw
000017E3  6465005F49        add [gs:bx+0x49],bl
000017E8  4F                dec di
000017E9  5F                pop di
000017EA  7265              jc 0x1851
000017EC  61                popa
000017ED  645F              fs pop di
000017EF  626173            bound sp,[bx+di+0x73]
000017F2  65005F76          add [gs:bx+0x76],bl
000017F6  7461              jz 0x1859
000017F8  626C65            bound bp,[si+0x65]
000017FB  5F                pop di
000017FC  6F                outsw
000017FD  66667365          o32 jnc 0x1866
00001801  7400              jz 0x1803
00001803  5F                pop di
00001804  49                dec cx
00001805  4F                dec di
00001806  5F                pop di
00001807  7361              jnc 0x186a
00001809  7665              jna 0x1870
0000180B  5F                pop di
0000180C  626173            bound sp,[bx+di+0x73]
0000180F  65007379          add [gs:bp+di+0x79],dh
00001813  735F              jnc 0x1874
00001815  657272            gs jc 0x188a
00001818  6C                insb
00001819  697374005F        imul si,[bp+di+0x74],word 0x5f00
0000181E  66696C656E6F0073  imul ebp,[si+0x65],dword 0x73006f6e
00001826  7464              jz 0x188c
00001828  6F                outsw
00001829  7574              jnz 0x189f
0000182B  005F49            add [bx+0x49],bl
0000182E  4F                dec di
0000182F  5F                pop di
00001830  325F31            xor bl,[bx+0x31]
00001833  5F                pop di
00001834  7374              jnc 0x18aa
00001836  646F              fs outsw
00001838  7574              jnz 0x18ae
0000183A  5F                pop di
0000183B  005F49            add [bx+0x49],bl
0000183E  4F                dec di
0000183F  5F                pop di
00001840  6C                insb
00001841  6F                outsw
00001842  636B5F            arpl [bp+di+0x5f],bp
00001845  7400              jz 0x1847
00001847  0000              add [bx+si],al
00001849  0000              add [bx+si],al
0000184B  0000              add [bx+si],al
0000184D  0000              add [bx+si],al
0000184F  0000              add [bx+si],al
00001851  0000              add [bx+si],al
00001853  0000              add [bx+si],al
00001855  0000              add [bx+si],al
00001857  0000              add [bx+si],al
00001859  0000              add [bx+si],al
0000185B  0000              add [bx+si],al
0000185D  0000              add [bx+si],al
0000185F  0000              add [bx+si],al
00001861  0000              add [bx+si],al
00001863  0003              add [bp+di],al
00001865  0001              add [bx+di],al
00001867  0038              add [bx+si],bh
00001869  0200              add al,[bx+si]
0000186B  0000              add [bx+si],al
0000186D  0000              add [bx+si],al
0000186F  0000              add [bx+si],al
00001871  0000              add [bx+si],al
00001873  0000              add [bx+si],al
00001875  0000              add [bx+si],al
00001877  0000              add [bx+si],al
00001879  0000              add [bx+si],al
0000187B  0003              add [bp+di],al
0000187D  0002              add [bp+si],al
0000187F  005402            add [si+0x2],dl
00001882  0000              add [bx+si],al
00001884  0000              add [bx+si],al
00001886  0000              add [bx+si],al
00001888  0000              add [bx+si],al
0000188A  0000              add [bx+si],al
0000188C  0000              add [bx+si],al
0000188E  0000              add [bx+si],al
00001890  0000              add [bx+si],al
00001892  0000              add [bx+si],al
00001894  0300              add ax,[bx+si]
00001896  0300              add ax,[bx+si]
00001898  7402              jz 0x189c
0000189A  0000              add [bx+si],al
0000189C  0000              add [bx+si],al
0000189E  0000              add [bx+si],al
000018A0  0000              add [bx+si],al
000018A2  0000              add [bx+si],al
000018A4  0000              add [bx+si],al
000018A6  0000              add [bx+si],al
000018A8  0000              add [bx+si],al
000018AA  0000              add [bx+si],al
000018AC  0300              add ax,[bx+si]
000018AE  0400              add al,0x0
000018B0  98                cbw
000018B1  0200              add al,[bx+si]
000018B3  0000              add [bx+si],al
000018B5  0000              add [bx+si],al
000018B7  0000              add [bx+si],al
000018B9  0000              add [bx+si],al
000018BB  0000              add [bx+si],al
000018BD  0000              add [bx+si],al
000018BF  0000              add [bx+si],al
000018C1  0000              add [bx+si],al
000018C3  0003              add [bp+di],al
000018C5  0005              add [di],al
000018C7  00B80200          add [bx+si+0x2],bh
000018CB  0000              add [bx+si],al
000018CD  0000              add [bx+si],al
000018CF  0000              add [bx+si],al
000018D1  0000              add [bx+si],al
000018D3  0000              add [bx+si],al
000018D5  0000              add [bx+si],al
000018D7  0000              add [bx+si],al
000018D9  0000              add [bx+si],al
000018DB  0003              add [bp+di],al
000018DD  00060060          add [0x6000],al
000018E1  0300              add ax,[bx+si]
000018E3  0000              add [bx+si],al
000018E5  0000              add [bx+si],al
000018E7  0000              add [bx+si],al
000018E9  0000              add [bx+si],al
000018EB  0000              add [bx+si],al
000018ED  0000              add [bx+si],al
000018EF  0000              add [bx+si],al
000018F1  0000              add [bx+si],al
000018F3  0003              add [bp+di],al
000018F5  0007              add [bx],al
000018F7  00E4              add ah,ah
000018F9  0300              add ax,[bx+si]
000018FB  0000              add [bx+si],al
000018FD  0000              add [bx+si],al
000018FF  0000              add [bx+si],al
00001901  0000              add [bx+si],al
00001903  0000              add [bx+si],al
00001905  0000              add [bx+si],al
00001907  0000              add [bx+si],al
00001909  0000              add [bx+si],al
0000190B  0003              add [bp+di],al
0000190D  0008              add [bx+si],cl
0000190F  00F8              add al,bh
00001911  0300              add ax,[bx+si]
00001913  0000              add [bx+si],al
00001915  0000              add [bx+si],al
00001917  0000              add [bx+si],al
00001919  0000              add [bx+si],al
0000191B  0000              add [bx+si],al
0000191D  0000              add [bx+si],al
0000191F  0000              add [bx+si],al
00001921  0000              add [bx+si],al
00001923  0003              add [bp+di],al
00001925  0009              add [bx+di],cl
00001927  0018              add [bx+si],bl
00001929  0400              add al,0x0
0000192B  0000              add [bx+si],al
0000192D  0000              add [bx+si],al
0000192F  0000              add [bx+si],al
00001931  0000              add [bx+si],al
00001933  0000              add [bx+si],al
00001935  0000              add [bx+si],al
00001937  0000              add [bx+si],al
00001939  0000              add [bx+si],al
0000193B  0003              add [bp+di],al
0000193D  000A              add [bp+si],cl
0000193F  00D8              add al,bl
00001941  0400              add al,0x0
00001943  0000              add [bx+si],al
00001945  0000              add [bx+si],al
00001947  0000              add [bx+si],al
00001949  0000              add [bx+si],al
0000194B  0000              add [bx+si],al
0000194D  0000              add [bx+si],al
0000194F  0000              add [bx+si],al
00001951  0000              add [bx+si],al
00001953  0003              add [bp+di],al
00001955  000B              add [bp+di],cl
00001957  00F0              add al,dh
00001959  0400              add al,0x0
0000195B  0000              add [bx+si],al
0000195D  0000              add [bx+si],al
0000195F  0000              add [bx+si],al
00001961  0000              add [bx+si],al
00001963  0000              add [bx+si],al
00001965  0000              add [bx+si],al
00001967  0000              add [bx+si],al
00001969  0000              add [bx+si],al
0000196B  0003              add [bp+di],al
0000196D  000C              add [si],cl
0000196F  0010              add [bx+si],dl
00001971  050000            add ax,0x0
00001974  0000              add [bx+si],al
00001976  0000              add [bx+si],al
00001978  0000              add [bx+si],al
0000197A  0000              add [bx+si],al
0000197C  0000              add [bx+si],al
0000197E  0000              add [bx+si],al
00001980  0000              add [bx+si],al
00001982  0000              add [bx+si],al
00001984  0300              add ax,[bx+si]
00001986  0D0030            or ax,0x3000
00001989  050000            add ax,0x0
0000198C  0000              add [bx+si],al
0000198E  0000              add [bx+si],al
00001990  0000              add [bx+si],al
00001992  0000              add [bx+si],al
00001994  0000              add [bx+si],al
00001996  0000              add [bx+si],al
00001998  0000              add [bx+si],al
0000199A  0000              add [bx+si],al
0000199C  0300              add ax,[bx+si]
0000199E  0E                push cs
0000199F  00C4              add ah,al
000019A1  06                push es
000019A2  0000              add [bx+si],al
000019A4  0000              add [bx+si],al
000019A6  0000              add [bx+si],al
000019A8  0000              add [bx+si],al
000019AA  0000              add [bx+si],al
000019AC  0000              add [bx+si],al
000019AE  0000              add [bx+si],al
000019B0  0000              add [bx+si],al
000019B2  0000              add [bx+si],al
000019B4  0300              add ax,[bx+si]
000019B6  0F00D0            lldt ax
000019B9  06                push es
000019BA  0000              add [bx+si],al
000019BC  0000              add [bx+si],al
000019BE  0000              add [bx+si],al
000019C0  0000              add [bx+si],al
000019C2  0000              add [bx+si],al
000019C4  0000              add [bx+si],al
000019C6  0000              add [bx+si],al
000019C8  0000              add [bx+si],al
000019CA  0000              add [bx+si],al
000019CC  0300              add ax,[bx+si]
000019CE  1000              adc [bx+si],al
000019D0  D8060000          fadd dword [0x0]
000019D4  0000              add [bx+si],al
000019D6  0000              add [bx+si],al
000019D8  0000              add [bx+si],al
000019DA  0000              add [bx+si],al
000019DC  0000              add [bx+si],al
000019DE  0000              add [bx+si],al
000019E0  0000              add [bx+si],al
000019E2  0000              add [bx+si],al
000019E4  0300              add ax,[bx+si]
000019E6  1100              adc [bx+si],ax
000019E8  1807              sbb [bx],al
000019EA  0000              add [bx+si],al
000019EC  0000              add [bx+si],al
000019EE  0000              add [bx+si],al
000019F0  0000              add [bx+si],al
000019F2  0000              add [bx+si],al
000019F4  0000              add [bx+si],al
000019F6  0000              add [bx+si],al
000019F8  0000              add [bx+si],al
000019FA  0000              add [bx+si],al
000019FC  0300              add ax,[bx+si]
000019FE  1200              adc al,[bx+si]
00001A00  E80D20            call 0x3a10
00001A03  0000              add [bx+si],al
00001A05  0000              add [bx+si],al
00001A07  0000              add [bx+si],al
00001A09  0000              add [bx+si],al
00001A0B  0000              add [bx+si],al
00001A0D  0000              add [bx+si],al
00001A0F  0000              add [bx+si],al
00001A11  0000              add [bx+si],al
00001A13  0003              add [bp+di],al
00001A15  0013              add [bp+di],dl
00001A17  00F0              add al,dh
00001A19  0D2000            or ax,0x20
00001A1C  0000              add [bx+si],al
00001A1E  0000              add [bx+si],al
00001A20  0000              add [bx+si],al
00001A22  0000              add [bx+si],al
00001A24  0000              add [bx+si],al
00001A26  0000              add [bx+si],al
00001A28  0000              add [bx+si],al
00001A2A  0000              add [bx+si],al
00001A2C  0300              add ax,[bx+si]
00001A2E  1400              adc al,0x0
00001A30  F8                clc
00001A31  0D2000            or ax,0x20
00001A34  0000              add [bx+si],al
00001A36  0000              add [bx+si],al
00001A38  0000              add [bx+si],al
00001A3A  0000              add [bx+si],al
00001A3C  0000              add [bx+si],al
00001A3E  0000              add [bx+si],al
00001A40  0000              add [bx+si],al
00001A42  0000              add [bx+si],al
00001A44  0300              add ax,[bx+si]
00001A46  1500D8            adc ax,0xd800
00001A49  0F                db 0x0f
00001A4A  2000              and [bx+si],al
00001A4C  0000              add [bx+si],al
00001A4E  0000              add [bx+si],al
00001A50  0000              add [bx+si],al
00001A52  0000              add [bx+si],al
00001A54  0000              add [bx+si],al
00001A56  0000              add [bx+si],al
00001A58  0000              add [bx+si],al
00001A5A  0000              add [bx+si],al
00001A5C  0300              add ax,[bx+si]
00001A5E  16                push ss
00001A5F  0000              add [bx+si],al
00001A61  1020              adc [bx+si],ah
00001A63  0000              add [bx+si],al
00001A65  0000              add [bx+si],al
00001A67  0000              add [bx+si],al
00001A69  0000              add [bx+si],al
00001A6B  0000              add [bx+si],al
00001A6D  0000              add [bx+si],al
00001A6F  0000              add [bx+si],al
00001A71  0000              add [bx+si],al
00001A73  0003              add [bp+di],al
00001A75  0017              add [bx],dl
00001A77  0020              add [bx+si],ah
00001A79  1020              adc [bx+si],ah
00001A7B  0000              add [bx+si],al
00001A7D  0000              add [bx+si],al
00001A7F  0000              add [bx+si],al
00001A81  0000              add [bx+si],al
00001A83  0000              add [bx+si],al
00001A85  0000              add [bx+si],al
00001A87  0000              add [bx+si],al
00001A89  0000              add [bx+si],al
00001A8B  0003              add [bp+di],al
00001A8D  0018              add [bx+si],bl
00001A8F  0030              add [bx+si],dh
00001A91  1020              adc [bx+si],ah
00001A93  0000              add [bx+si],al
00001A95  0000              add [bx+si],al
00001A97  0000              add [bx+si],al
00001A99  0000              add [bx+si],al
00001A9B  0000              add [bx+si],al
00001A9D  0000              add [bx+si],al
00001A9F  0000              add [bx+si],al
00001AA1  0000              add [bx+si],al
00001AA3  0003              add [bp+di],al
00001AA5  0019              add [bx+di],bl
00001AA7  0000              add [bx+si],al
00001AA9  0000              add [bx+si],al
00001AAB  0000              add [bx+si],al
00001AAD  0000              add [bx+si],al
00001AAF  0000              add [bx+si],al
00001AB1  0000              add [bx+si],al
00001AB3  0000              add [bx+si],al
00001AB5  0000              add [bx+si],al
00001AB7  0000              add [bx+si],al
00001AB9  0000              add [bx+si],al
00001ABB  0003              add [bp+di],al
00001ABD  001A              add [bp+si],bl
00001ABF  0000              add [bx+si],al
00001AC1  0000              add [bx+si],al
00001AC3  0000              add [bx+si],al
00001AC5  0000              add [bx+si],al
00001AC7  0000              add [bx+si],al
00001AC9  0000              add [bx+si],al
00001ACB  0000              add [bx+si],al
00001ACD  0000              add [bx+si],al
00001ACF  0000              add [bx+si],al
00001AD1  0000              add [bx+si],al
00001AD3  0003              add [bp+di],al
00001AD5  001B              add [bp+di],bl
00001AD7  0000              add [bx+si],al
00001AD9  0000              add [bx+si],al
00001ADB  0000              add [bx+si],al
00001ADD  0000              add [bx+si],al
00001ADF  0000              add [bx+si],al
00001AE1  0000              add [bx+si],al
00001AE3  0000              add [bx+si],al
00001AE5  0000              add [bx+si],al
00001AE7  0000              add [bx+si],al
00001AE9  0000              add [bx+si],al
00001AEB  0003              add [bp+di],al
00001AED  001C              add [si],bl
00001AEF  0000              add [bx+si],al
00001AF1  0000              add [bx+si],al
00001AF3  0000              add [bx+si],al
00001AF5  0000              add [bx+si],al
00001AF7  0000              add [bx+si],al
00001AF9  0000              add [bx+si],al
00001AFB  0000              add [bx+si],al
00001AFD  0000              add [bx+si],al
00001AFF  0000              add [bx+si],al
00001B01  0000              add [bx+si],al
00001B03  0003              add [bp+di],al
00001B05  001D              add [di],bl
00001B07  0000              add [bx+si],al
00001B09  0000              add [bx+si],al
00001B0B  0000              add [bx+si],al
00001B0D  0000              add [bx+si],al
00001B0F  0000              add [bx+si],al
00001B11  0000              add [bx+si],al
00001B13  0000              add [bx+si],al
00001B15  0000              add [bx+si],al
00001B17  0000              add [bx+si],al
00001B19  0000              add [bx+si],al
00001B1B  0003              add [bp+di],al
00001B1D  001E0000          add [0x0],bl
00001B21  0000              add [bx+si],al
00001B23  0000              add [bx+si],al
00001B25  0000              add [bx+si],al
00001B27  0000              add [bx+si],al
00001B29  0000              add [bx+si],al
00001B2B  0000              add [bx+si],al
00001B2D  0000              add [bx+si],al
00001B2F  0001              add [bx+di],al
00001B31  0000              add [bx+si],al
00001B33  0004              add [si],al
00001B35  00F1              add cl,dh
00001B37  FF00              inc word [bx+si]
00001B39  0000              add [bx+si],al
00001B3B  0000              add [bx+si],al
00001B3D  0000              add [bx+si],al
00001B3F  0000              add [bx+si],al
00001B41  0000              add [bx+si],al
00001B43  0000              add [bx+si],al
00001B45  0000              add [bx+si],al
00001B47  0008              add [bx+si],cl
00001B49  0000              add [bx+si],al
00001B4B  0004              add [si],al
00001B4D  00F1              add cl,dh
00001B4F  FF00              inc word [bx+si]
00001B51  0000              add [bx+si],al
00001B53  0000              add [bx+si],al
00001B55  0000              add [bx+si],al
00001B57  0000              add [bx+si],al
00001B59  0000              add [bx+si],al
00001B5B  0000              add [bx+si],al
00001B5D  0000              add [bx+si],al
00001B5F  0013              add [bp+di],dl
00001B61  0000              add [bx+si],al
00001B63  0002              add [bp+si],al
00001B65  000D              add [di],cl
00001B67  006005            add [bx+si+0x5],ah
00001B6A  0000              add [bx+si],al
00001B6C  0000              add [bx+si],al
00001B6E  0000              add [bx+si],al
00001B70  0000              add [bx+si],al
00001B72  0000              add [bx+si],al
00001B74  0000              add [bx+si],al
00001B76  0000              add [bx+si],al
00001B78  150000            adc ax,0x0
00001B7B  0002              add [bp+si],al
00001B7D  000D              add [di],cl
00001B7F  00900500          add [bx+si+0x5],dl
00001B83  0000              add [bx+si],al
00001B85  0000              add [bx+si],al
00001B87  0000              add [bx+si],al
00001B89  0000              add [bx+si],al
00001B8B  0000              add [bx+si],al
00001B8D  0000              add [bx+si],al
00001B8F  0028              add [bx+si],ch
00001B91  0000              add [bx+si],al
00001B93  0002              add [bp+si],al
00001B95  000D              add [di],cl
00001B97  00D0              add al,dl
00001B99  050000            add ax,0x0
00001B9C  0000              add [bx+si],al
00001B9E  0000              add [bx+si],al
00001BA0  0000              add [bx+si],al
00001BA2  0000              add [bx+si],al
00001BA4  0000              add [bx+si],al
00001BA6  0000              add [bx+si],al
00001BA8  3E0000            add [ds:bx+si],al
00001BAB  0001              add [bx+di],al
00001BAD  0018              add [bx+si],bl
00001BAF  0030              add [bx+si],dh
00001BB1  1020              adc [bx+si],ah
00001BB3  0000              add [bx+si],al
00001BB5  0000              add [bx+si],al
00001BB7  0001              add [bx+di],al
00001BB9  0000              add [bx+si],al
00001BBB  0000              add [bx+si],al
00001BBD  0000              add [bx+si],al
00001BBF  004D00            add [di+0x0],cl
00001BC2  0000              add [bx+si],al
00001BC4  0100              add [bx+si],ax
00001BC6  1300              adc ax,[bx+si]
00001BC8  F00D2000          lock or ax,0x20
00001BCC  0000              add [bx+si],al
00001BCE  0000              add [bx+si],al
00001BD0  0000              add [bx+si],al
00001BD2  0000              add [bx+si],al
00001BD4  0000              add [bx+si],al
00001BD6  0000              add [bx+si],al
00001BD8  7400              jz 0x1bda
00001BDA  0000              add [bx+si],al
00001BDC  0200              add al,[bx+si]
00001BDE  0D0010            or ax,0x1000
00001BE1  06                push es
00001BE2  0000              add [bx+si],al
00001BE4  0000              add [bx+si],al
00001BE6  0000              add [bx+si],al
00001BE8  0000              add [bx+si],al
00001BEA  0000              add [bx+si],al
00001BEC  0000              add [bx+si],al
00001BEE  0000              add [bx+si],al
00001BF0  800000            add byte [bx+si],0x0
00001BF3  0001              add [bx+di],al
00001BF5  0012              add [bp+si],dl
00001BF7  00E8              add al,ch
00001BF9  0D2000            or ax,0x20
00001BFC  0000              add [bx+si],al
00001BFE  0000              add [bx+si],al
00001C00  0000              add [bx+si],al
00001C02  0000              add [bx+si],al
00001C04  0000              add [bx+si],al
00001C06  0000              add [bx+si],al
00001C08  9F                lahf
00001C09  0000              add [bx+si],al
00001C0B  0004              add [si],al
00001C0D  00F1              add cl,dh
00001C0F  FF00              inc word [bx+si]
00001C11  0000              add [bx+si],al
00001C13  0000              add [bx+si],al
00001C15  0000              add [bx+si],al
00001C17  0000              add [bx+si],al
00001C19  0000              add [bx+si],al
00001C1B  0000              add [bx+si],al
00001C1D  0000              add [bx+si],al
00001C1F  0008              add [bx+si],cl
00001C21  0000              add [bx+si],al
00001C23  0004              add [si],al
00001C25  00F1              add cl,dh
00001C27  FF00              inc word [bx+si]
00001C29  0000              add [bx+si],al
00001C2B  0000              add [bx+si],al
00001C2D  0000              add [bx+si],al
00001C2F  0000              add [bx+si],al
00001C31  0000              add [bx+si],al
00001C33  0000              add [bx+si],al
00001C35  0000              add [bx+si],al
00001C37  00A60000          add [bp+0x0],ah
00001C3B  0001              add [bx+di],al
00001C3D  0011              add [bx+di],dl
00001C3F  0024              add [si],ah
00001C41  0800              or [bx+si],al
00001C43  0000              add [bx+si],al
00001C45  0000              add [bx+si],al
00001C47  0000              add [bx+si],al
00001C49  0000              add [bx+si],al
00001C4B  0000              add [bx+si],al
00001C4D  0000              add [bx+si],al
00001C4F  0000              add [bx+si],al
00001C51  0000              add [bx+si],al
00001C53  0004              add [si],al
00001C55  00F1              add cl,dh
00001C57  FF00              inc word [bx+si]
00001C59  0000              add [bx+si],al
00001C5B  0000              add [bx+si],al
00001C5D  0000              add [bx+si],al
00001C5F  0000              add [bx+si],al
00001C61  0000              add [bx+si],al
00001C63  0000              add [bx+si],al
00001C65  0000              add [bx+si],al
00001C67  00B40000          add [si+0x0],dh
00001C6B  0000              add [bx+si],al
00001C6D  0012              add [bp+si],dl
00001C6F  00F0              add al,dh
00001C71  0D2000            or ax,0x20
00001C74  0000              add [bx+si],al
00001C76  0000              add [bx+si],al
00001C78  0000              add [bx+si],al
00001C7A  0000              add [bx+si],al
00001C7C  0000              add [bx+si],al
00001C7E  0000              add [bx+si],al
00001C80  C500              lds ax,[bx+si]
00001C82  0000              add [bx+si],al
00001C84  0100              add [bx+si],ax
00001C86  1400              adc al,0x0
00001C88  F8                clc
00001C89  0D2000            or ax,0x20
00001C8C  0000              add [bx+si],al
00001C8E  0000              add [bx+si],al
00001C90  0000              add [bx+si],al
00001C92  0000              add [bx+si],al
00001C94  0000              add [bx+si],al
00001C96  0000              add [bx+si],al
00001C98  CE                into
00001C99  0000              add [bx+si],al
00001C9B  0000              add [bx+si],al
00001C9D  0012              add [bp+si],dl
00001C9F  00E8              add al,ch
00001CA1  0D2000            or ax,0x20
00001CA4  0000              add [bx+si],al
00001CA6  0000              add [bx+si],al
00001CA8  0000              add [bx+si],al
00001CAA  0000              add [bx+si],al
00001CAC  0000              add [bx+si],al
00001CAE  0000              add [bx+si],al
00001CB0  E100              loope 0x1cb2
00001CB2  0000              add [bx+si],al
00001CB4  0000              add [bx+si],al
00001CB6  1000              adc [bx+si],al
00001CB8  D8060000          fadd dword [0x0]
00001CBC  0000              add [bx+si],al
00001CBE  0000              add [bx+si],al
00001CC0  0000              add [bx+si],al
00001CC2  0000              add [bx+si],al
00001CC4  0000              add [bx+si],al
00001CC6  0000              add [bx+si],al
00001CC8  F4                hlt
00001CC9  0000              add [bx+si],al
00001CCB  0001              add [bx+di],al
00001CCD  00160000          add [0x0],dl
00001CD1  1020              adc [bx+si],ah
00001CD3  0000              add [bx+si],al
00001CD5  0000              add [bx+si],al
00001CD7  0000              add [bx+si],al
00001CD9  0000              add [bx+si],al
00001CDB  0000              add [bx+si],al
00001CDD  0000              add [bx+si],al
00001CDF  000A              add [bp+si],cl
00001CE1  0100              add [bx+si],ax
00001CE3  0012              add [bp+si],dl
00001CE5  000D              add [di],cl
00001CE7  00C0              add al,al
00001CE9  06                push es
00001CEA  0000              add [bx+si],al
00001CEC  0000              add [bx+si],al
00001CEE  0000              add [bx+si],al
00001CF0  0100              add [bx+si],ax
00001CF2  0000              add [bx+si],al
00001CF4  0000              add [bx+si],al
00001CF6  0000              add [bx+si],al
00001CF8  1A01              sbb al,[bx+di]
00001CFA  0000              add [bx+si],al
00001CFC  2000              and [bx+si],al
00001CFE  0000              add [bx+si],al
00001D00  0000              add [bx+si],al
00001D02  0000              add [bx+si],al
00001D04  0000              add [bx+si],al
00001D06  0000              add [bx+si],al
00001D08  0000              add [bx+si],al
00001D0A  0000              add [bx+si],al
00001D0C  0000              add [bx+si],al
00001D0E  0000              add [bx+si],al
00001D10  7201              jc 0x1d13
00001D12  0000              add [bx+si],al
00001D14  2000              and [bx+si],al
00001D16  17                pop ss
00001D17  0020              add [bx+si],ah
00001D19  1020              adc [bx+si],ah
00001D1B  0000              add [bx+si],al
00001D1D  0000              add [bx+si],al
00001D1F  0000              add [bx+si],al
00001D21  0000              add [bx+si],al
00001D23  0000              add [bx+si],al
00001D25  0000              add [bx+si],al
00001D27  00360100          add [0x1],dh
00001D2B  0010              add [bx+si],dl
00001D2D  0017              add [bx],dl
00001D2F  0030              add [bx+si],dh
00001D31  1020              adc [bx+si],ah
00001D33  0000              add [bx+si],al
00001D35  0000              add [bx+si],al
00001D37  0000              add [bx+si],al
00001D39  0000              add [bx+si],al
00001D3B  0000              add [bx+si],al
00001D3D  0000              add [bx+si],al
00001D3F  0014              add [si],dl
00001D41  0100              add [bx+si],ax
00001D43  0012              add [bp+si],dl
00001D45  000E00C4          add [0xc400],cl
00001D49  06                push es
00001D4A  0000              add [bx+si],al
00001D4C  0000              add [bx+si],al
00001D4E  0000              add [bx+si],al
00001D50  0000              add [bx+si],al
00001D52  0000              add [bx+si],al
00001D54  0000              add [bx+si],al
00001D56  0000              add [bx+si],al
00001D58  3D0100            cmp ax,0x1
00001D5B  0012              add [bp+si],dl
00001D5D  0000              add [bx+si],al
00001D5F  0000              add [bx+si],al
00001D61  0000              add [bx+si],al
00001D63  0000              add [bx+si],al
00001D65  0000              add [bx+si],al
00001D67  0000              add [bx+si],al
00001D69  0000              add [bx+si],al
00001D6B  0000              add [bx+si],al
00001D6D  0000              add [bx+si],al
00001D6F  005101            add [bx+di+0x1],dl
00001D72  0000              add [bx+si],al
00001D74  1200              adc al,[bx+si]
00001D76  0000              add [bx+si],al
00001D78  0000              add [bx+si],al
00001D7A  0000              add [bx+si],al
00001D7C  0000              add [bx+si],al
00001D7E  0000              add [bx+si],al
00001D80  0000              add [bx+si],al
00001D82  0000              add [bx+si],al
00001D84  0000              add [bx+si],al
00001D86  0000              add [bx+si],al
00001D88  7001              jo 0x1d8b
00001D8A  0000              add [bx+si],al
00001D8C  1000              adc [bx+si],al
00001D8E  17                pop ss
00001D8F  0020              add [bx+si],ah
00001D91  1020              adc [bx+si],ah
00001D93  0000              add [bx+si],al
00001D95  0000              add [bx+si],al
00001D97  0000              add [bx+si],al
00001D99  0000              add [bx+si],al
00001D9B  0000              add [bx+si],al
00001D9D  0000              add [bx+si],al
00001D9F  007D01            add [di+0x1],bh
00001DA2  0000              add [bx+si],al
00001DA4  2000              and [bx+si],al
00001DA6  0000              add [bx+si],al
00001DA8  0000              add [bx+si],al
00001DAA  0000              add [bx+si],al
00001DAC  0000              add [bx+si],al
00001DAE  0000              add [bx+si],al
00001DB0  0000              add [bx+si],al
00001DB2  0000              add [bx+si],al
00001DB4  0000              add [bx+si],al
00001DB6  0000              add [bx+si],al
00001DB8  8C01              mov [bx+di],es
00001DBA  0000              add [bx+si],al
00001DBC  1102              adc [bp+si],ax
00001DBE  17                pop ss
00001DBF  0028              add [bx+si],ch
00001DC1  1020              adc [bx+si],ah
00001DC3  0000              add [bx+si],al
00001DC5  0000              add [bx+si],al
00001DC7  0000              add [bx+si],al
00001DC9  0000              add [bx+si],al
00001DCB  0000              add [bx+si],al
00001DCD  0000              add [bx+si],al
00001DCF  00990100          add [bx+di+0x1],bl
00001DD3  0011              add [bx+di],dl
00001DD5  000F              add [bx],cl
00001DD7  00D0              add al,dl
00001DD9  06                push es
00001DDA  0000              add [bx+si],al
00001DDC  0000              add [bx+si],al
00001DDE  0000              add [bx+si],al
00001DE0  0400              add al,0x0
00001DE2  0000              add [bx+si],al
00001DE4  0000              add [bx+si],al
00001DE6  0000              add [bx+si],al
00001DE8  A801              test al,0x1
00001DEA  0000              add [bx+si],al
00001DEC  1200              adc al,[bx+si]
00001DEE  0D0050            or ax,0x5000
00001DF1  06                push es
00001DF2  0000              add [bx+si],al
00001DF4  0000              add [bx+si],al
00001DF6  0000              add [bx+si],al
00001DF8  650000            add [gs:bx+si],al
00001DFB  0000              add [bx+si],al
00001DFD  0000              add [bx+si],al
00001DFF  00C0              add al,al
00001E01  0000              add [bx+si],al
00001E03  0010              add [bx+si],dl
00001E05  0018              add [bx+si],bl
00001E07  0038              add [bx+si],bh
00001E09  1020              adc [bx+si],ah
00001E0B  0000              add [bx+si],al
00001E0D  0000              add [bx+si],al
00001E0F  0000              add [bx+si],al
00001E11  0000              add [bx+si],al
00001E13  0000              add [bx+si],al
00001E15  0000              add [bx+si],al
00001E17  007601            add [bp+0x1],dh
00001E1A  0000              add [bx+si],al
00001E1C  1200              adc al,[bx+si]
00001E1E  0D0030            or ax,0x3000
00001E21  050000            add ax,0x0
00001E24  0000              add [bx+si],al
00001E26  0000              add [bx+si],al
00001E28  2B00              sub ax,[bx+si]
00001E2A  0000              add [bx+si],al
00001E2C  0000              add [bx+si],al
00001E2E  0000              add [bx+si],al
00001E30  B80100            mov ax,0x1
00001E33  0010              add [bx+si],dl
00001E35  0018              add [bx+si],bl
00001E37  0030              add [bx+si],dh
00001E39  1020              adc [bx+si],ah
00001E3B  0000              add [bx+si],al
00001E3D  0000              add [bx+si],al
00001E3F  0000              add [bx+si],al
00001E41  0000              add [bx+si],al
00001E43  0000              add [bx+si],al
00001E45  0000              add [bx+si],al
00001E47  00C4              add ah,al
00001E49  0100              add [bx+si],ax
00001E4B  0012              add [bp+si],dl
00001E4D  000D              add [di],cl
00001E4F  002D              add [di],ch
00001E51  06                push es
00001E52  0000              add [bx+si],al
00001E54  0000              add [bx+si],al
00001E56  0000              add [bx+si],al
00001E58  150000            adc ax,0x0
00001E5B  0000              add [bx+si],al
00001E5D  0000              add [bx+si],al
00001E5F  00C9              add cl,cl
00001E61  0100              add [bx+si],ax
00001E63  0012              add [bp+si],dl
00001E65  000D              add [di],cl
00001E67  0015              add [di],dl
00001E69  06                push es
00001E6A  0000              add [bx+si],al
00001E6C  0000              add [bx+si],al
00001E6E  0000              add [bx+si],al
00001E70  1800              sbb [bx+si],al
00001E72  0000              add [bx+si],al
00001E74  0000              add [bx+si],al
00001E76  0000              add [bx+si],al
00001E78  D201              rol byte [bx+di],cl
00001E7A  0000              add [bx+si],al
00001E7C  1102              adc [bp+si],ax
00001E7E  17                pop ss
00001E7F  0030              add [bx+si],dh
00001E81  1020              adc [bx+si],ah
00001E83  0000              add [bx+si],al
00001E85  0000              add [bx+si],al
00001E87  0000              add [bx+si],al
00001E89  0000              add [bx+si],al
00001E8B  0000              add [bx+si],al
00001E8D  0000              add [bx+si],al
00001E8F  00DE              add dh,bl
00001E91  0100              add [bx+si],ax
00001E93  0020              add [bx+si],ah
00001E95  0000              add [bx+si],al
00001E97  0000              add [bx+si],al
00001E99  0000              add [bx+si],al
00001E9B  0000              add [bx+si],al
00001E9D  0000              add [bx+si],al
00001E9F  0000              add [bx+si],al
00001EA1  0000              add [bx+si],al
00001EA3  0000              add [bx+si],al
00001EA5  0000              add [bx+si],al
00001EA7  00F8              add al,bh
00001EA9  0100              add [bx+si],ax
00001EAB  0022              add [bp+si],ah
00001EAD  0000              add [bx+si],al
00001EAF  0000              add [bx+si],al
00001EB1  0000              add [bx+si],al
00001EB3  0000              add [bx+si],al
00001EB5  0000              add [bx+si],al
00001EB7  0000              add [bx+si],al
00001EB9  0000              add [bx+si],al
00001EBB  0000              add [bx+si],al
00001EBD  0000              add [bx+si],al
00001EBF  00B20100          add [bp+si+0x1],dh
00001EC3  0012              add [bp+si],dl
00001EC5  000B              add [bp+di],cl
00001EC7  00F0              add al,dh
00001EC9  0400              add al,0x0
00001ECB  0000              add [bx+si],al
00001ECD  0000              add [bx+si],al
00001ECF  0000              add [bx+si],al
00001ED1  0000              add [bx+si],al
00001ED3  0000              add [bx+si],al
00001ED5  0000              add [bx+si],al
00001ED7  0000              add [bx+si],al
00001ED9  696E69742E        imul bp,[bp+0x69],word 0x2e74
00001EDE  6300              arpl [bx+si],ax
00001EE0  637274            arpl [bp+si+0x74],si
00001EE3  7374              jnc 0x1f59
00001EE5  7566              jnz 0x1f4d
00001EE7  662E6300          o32 arpl [cs:bx+si],ax
00001EEB  64657265          gs jc 0x1f54
00001EEF  676973746572      imul si,[ebx+0x74],word 0x7265
00001EF5  5F                pop di
00001EF6  746D              jz 0x1f65
00001EF8  5F                pop di
00001EF9  636C6F            arpl [si+0x6f],bp
00001EFC  6E                outsb
00001EFD  657300            gs jnc 0x1f00
00001F00  5F                pop di
00001F01  5F                pop di
00001F02  646F              fs outsw
00001F04  5F                pop di
00001F05  676C              a32 insb
00001F07  6F                outsw
00001F08  62616C            bound sp,[bx+di+0x6c]
00001F0B  5F                pop di
00001F0C  64746F            fs jz 0x1f7e
00001F0F  7273              jc 0x1f84
00001F11  5F                pop di
00001F12  61                popa
00001F13  7578              jnz 0x1f8d
00001F15  00636F            add [bp+di+0x6f],ah
00001F18  6D                insw
00001F19  706C              jo 0x1f87
00001F1B  657465            gs jz 0x1f83
00001F1E  642E37            cs aaa
00001F21  3334              xor si,[si]
00001F23  3000              xor [bx+si],al
00001F25  5F                pop di
00001F26  5F                pop di
00001F27  646F              fs outsw
00001F29  5F                pop di
00001F2A  676C              a32 insb
00001F2C  6F                outsw
00001F2D  62616C            bound sp,[bx+di+0x6c]
00001F30  5F                pop di
00001F31  64746F            fs jz 0x1fa3
00001F34  7273              jc 0x1fa9
00001F36  5F                pop di
00001F37  61                popa
00001F38  7578              jnz 0x1fb2
00001F3A  5F                pop di
00001F3B  66696E695F617272  imul ebp,[bp+0x69],dword 0x7272615f
00001F43  61                popa
00001F44  795F              jns 0x1fa5
00001F46  656E              gs outsb
00001F48  7472              jz 0x1fbc
00001F4A  7900              jns 0x1f4c
00001F4C  667261            o32 jc 0x1fb0
00001F4F  6D                insw
00001F50  655F              gs pop di
00001F52  64756D            fs jnz 0x1fc2
00001F55  6D                insw
00001F56  7900              jns 0x1f58
00001F58  5F                pop di
00001F59  5F                pop di
00001F5A  667261            o32 jc 0x1fbe
00001F5D  6D                insw
00001F5E  655F              gs pop di
00001F60  64756D            fs jnz 0x1fd0
00001F63  6D                insw
00001F64  795F              jns 0x1fc5
00001F66  696E69745F        imul bp,[bp+0x69],word 0x5f74
00001F6B  61                popa
00001F6C  7272              jc 0x1fe0
00001F6E  61                popa
00001F6F  795F              jns 0x1fd0
00001F71  656E              gs outsb
00001F73  7472              jz 0x1fe7
00001F75  7900              jns 0x1f77
00001F77  6D                insw
00001F78  61                popa
00001F79  696E2E6300        imul bp,[bp+0x2e],word 0x63
00001F7E  5F                pop di
00001F7F  5F                pop di
00001F80  46                inc si
00001F81  52                push dx
00001F82  41                inc cx
00001F83  4D                dec bp
00001F84  45                inc bp
00001F85  5F                pop di
00001F86  45                inc bp
00001F87  4E                dec si
00001F88  44                inc sp
00001F89  5F                pop di
00001F8A  5F                pop di
00001F8B  005F5F            add [bx+0x5f],bl
00001F8E  696E69745F        imul bp,[bp+0x69],word 0x5f74
00001F93  61                popa
00001F94  7272              jc 0x2008
00001F96  61                popa
00001F97  795F              jns 0x1ff8
00001F99  656E              gs outsb
00001F9B  64005F44          add [fs:bx+0x44],bl
00001F9F  59                pop cx
00001FA0  4E                dec si
00001FA1  41                inc cx
00001FA2  4D                dec bp
00001FA3  49                dec cx
00001FA4  43                inc bx
00001FA5  005F5F            add [bx+0x5f],bl
00001FA8  696E69745F        imul bp,[bp+0x69],word 0x5f74
00001FAD  61                popa
00001FAE  7272              jc 0x2022
00001FB0  61                popa
00001FB1  795F              jns 0x2012
00001FB3  7374              jnc 0x2029
00001FB5  61                popa
00001FB6  7274              jc 0x202c
00001FB8  005F5F            add [bx+0x5f],bl
00001FBB  47                inc di
00001FBC  4E                dec si
00001FBD  55                push bp
00001FBE  5F                pop di
00001FBF  45                inc bp
00001FC0  48                dec ax
00001FC1  5F                pop di
00001FC2  46                inc si
00001FC3  52                push dx
00001FC4  41                inc cx
00001FC5  4D                dec bp
00001FC6  45                inc bp
00001FC7  5F                pop di
00001FC8  48                dec ax
00001FC9  44                inc sp
00001FCA  52                push dx
00001FCB  005F47            add [bx+0x47],bl
00001FCE  4C                dec sp
00001FCF  4F                dec di
00001FD0  42                inc dx
00001FD1  41                inc cx
00001FD2  4C                dec sp
00001FD3  5F                pop di
00001FD4  4F                dec di
00001FD5  46                inc si
00001FD6  46                inc si
00001FD7  53                push bx
00001FD8  45                inc bp
00001FD9  54                push sp
00001FDA  5F                pop di
00001FDB  54                push sp
00001FDC  41                inc cx
00001FDD  42                inc dx
00001FDE  4C                dec sp
00001FDF  45                inc bp
00001FE0  5F                pop di
00001FE1  005F5F            add [bx+0x5f],bl
00001FE4  6C                insb
00001FE5  6962635F63        imul sp,[bp+si+0x63],word 0x635f
00001FEA  7375              jnc 0x2061
00001FEC  5F                pop di
00001FED  66696E69005F4954  imul ebp,[bp+0x69],dword 0x54495f00
00001FF5  4D                dec bp
00001FF6  5F                pop di
00001FF7  64657265          gs jc 0x2060
00001FFB  676973746572      imul si,[ebx+0x74],word 0x7265
00002001  54                push sp
00002002  4D                dec bp
00002003  43                inc bx
00002004  6C                insb
00002005  6F                outsw
00002006  6E                outsb
00002007  6554              gs push sp
00002009  61                popa
0000200A  626C65            bound bp,[si+0x65]
0000200D  005F65            add [bx+0x65],bl
00002010  6461              fs popa
00002012  7461              jz 0x2075
00002014  007072            add [bx+si+0x72],dh
00002017  696E746640        imul bp,[bp+0x74],word 0x4066
0000201C  40                inc ax
0000201D  47                inc di
0000201E  4C                dec sp
0000201F  49                dec cx
00002020  42                inc dx
00002021  43                inc bx
00002022  5F                pop di
00002023  322E322E          xor ch,[0x2e32]
00002027  35005F            xor ax,0x5f00
0000202A  5F                pop di
0000202B  6C                insb
0000202C  6962635F73        imul sp,[bp+si+0x63],word 0x735f
00002031  7461              jz 0x2094
00002033  7274              jc 0x20a9
00002035  5F                pop di
00002036  6D                insw
00002037  61                popa
00002038  696E404047        imul bp,[bp+0x40],word 0x4740
0000203D  4C                dec sp
0000203E  49                dec cx
0000203F  42                inc dx
00002040  43                inc bx
00002041  5F                pop di
00002042  322E322E          xor ch,[0x2e32]
00002046  35005F            xor ax,0x5f00
00002049  5F                pop di
0000204A  6461              fs popa
0000204C  7461              jz 0x20af
0000204E  5F                pop di
0000204F  7374              jnc 0x20c5
00002051  61                popa
00002052  7274              jc 0x20c8
00002054  005F5F            add [bx+0x5f],bl
00002057  676D              a32 insw
00002059  6F                outsw
0000205A  6E                outsb
0000205B  5F                pop di
0000205C  7374              jnc 0x20d2
0000205E  61                popa
0000205F  7274              jc 0x20d5
00002061  5F                pop di
00002062  5F                pop di
00002063  005F5F            add [bx+0x5f],bl
00002066  64736F            fs jnc 0x20d8
00002069  5F                pop di
0000206A  68616E            push word 0x6e61
0000206D  646C              fs insb
0000206F  65005F49          add [gs:bx+0x49],bl
00002073  4F                dec di
00002074  5F                pop di
00002075  7374              jnc 0x20eb
00002077  64696E5F7573      imul bp,[fs:bp+0x5f],word 0x7375
0000207D  6564005F5F        add [fs:bx+0x5f],bl
00002082  6C                insb
00002083  6962635F63        imul sp,[bp+si+0x63],word 0x635f
00002088  7375              jnc 0x20ff
0000208A  5F                pop di
0000208B  696E697400        imul bp,[bp+0x69],word 0x74
00002090  5F                pop di
00002091  5F                pop di
00002092  627373            bound si,[bp+di+0x73]
00002095  5F                pop di
00002096  7374              jnc 0x210c
00002098  61                popa
00002099  7274              jc 0x210f
0000209B  006D61            add [di+0x61],ch
0000209E  696E006675        imul bp,[bp+0x0],word 0x7566
000020A3  6E                outsb
000020A4  637469            arpl [si+0x69],si
000020A7  6F                outsw
000020A8  6E                outsb
000020A9  005F5F            add [bx+0x5f],bl
000020AC  54                push sp
000020AD  4D                dec bp
000020AE  43                inc bx
000020AF  5F                pop di
000020B0  45                inc bp
000020B1  4E                dec si
000020B2  44                inc sp
000020B3  5F                pop di
000020B4  5F                pop di
000020B5  005F49            add [bx+0x49],bl
000020B8  54                push sp
000020B9  4D                dec bp
000020BA  5F                pop di
000020BB  7265              jc 0x2122
000020BD  676973746572      imul si,[ebx+0x74],word 0x7265
000020C3  54                push sp
000020C4  4D                dec bp
000020C5  43                inc bx
000020C6  6C                insb
000020C7  6F                outsw
000020C8  6E                outsb
000020C9  6554              gs push sp
000020CB  61                popa
000020CC  626C65            bound bp,[si+0x65]
000020CF  005F5F            add [bx+0x5f],bl
000020D2  637861            arpl [bx+si+0x61],di
000020D5  5F                pop di
000020D6  66696E616C697A65  imul ebp,[bp+0x61],dword 0x657a696c
000020DE  40                inc ax
000020DF  40                inc ax
000020E0  47                inc di
000020E1  4C                dec sp
000020E2  49                dec cx
000020E3  42                inc dx
000020E4  43                inc bx
000020E5  5F                pop di
000020E6  322E322E          xor ch,[0x2e32]
000020EA  350000            xor ax,0x0
000020ED  2E7379            cs jnc 0x2169
000020F0  6D                insw
000020F1  7461              jz 0x2154
000020F3  6200              bound ax,[bx+si]
000020F5  2E7374            cs jnc 0x216c
000020F8  7274              jc 0x216e
000020FA  61                popa
000020FB  6200              bound ax,[bx+si]
000020FD  2E7368            cs jnc 0x2168
00002100  7374              jnc 0x2176
00002102  7274              jc 0x2178
00002104  61                popa
00002105  6200              bound ax,[bx+si]
00002107  2E696E746572      imul bp,[cs:bp+0x74],word 0x7265
0000210D  7000              jo 0x210f
0000210F  2E6E              cs outsb
00002111  6F                outsw
00002112  7465              jz 0x2179
00002114  2E41              cs inc cx
00002116  42                inc dx
00002117  49                dec cx
00002118  2D7461            sub ax,0x6174
0000211B  67002E            add [esi],ch
0000211E  6E                outsb
0000211F  6F                outsw
00002120  7465              jz 0x2187
00002122  2E676E            cs a32 outsb
00002125  752E              jnz 0x2155
00002127  627569            bound si,[di+0x69]
0000212A  6C                insb
0000212B  642D6964          fs sub ax,0x6469
0000212F  002E676E          add [0x6e67],ch
00002133  752E              jnz 0x2163
00002135  686173            push word 0x7361
00002138  68002E            push word 0x2e00
0000213B  64796E            fs jns 0x21ac
0000213E  7379              jnc 0x21b9
00002140  6D                insw
00002141  002E6479          add [0x7964],ch
00002145  6E                outsb
00002146  7374              jnc 0x21bc
00002148  7200              jc 0x214a
0000214A  2E676E            cs a32 outsb
0000214D  752E              jnz 0x217d
0000214F  7665              jna 0x21b6
00002151  7273              jc 0x21c6
00002153  696F6E002E        imul bp,[bx+0x6e],word 0x2e00
00002158  676E              a32 outsb
0000215A  752E              jnz 0x218a
0000215C  7665              jna 0x21c3
0000215E  7273              jc 0x21d3
00002160  696F6E5F72        imul bp,[bx+0x6e],word 0x725f
00002165  002E7265          add [0x6572],ch
00002169  6C                insb
0000216A  61                popa
0000216B  2E64796E          fs jns 0x21dd
0000216F  002E7265          add [0x6572],ch
00002173  6C                insb
00002174  61                popa
00002175  2E706C            cs jo 0x21e4
00002178  7400              jz 0x217a
0000217A  2E696E697400      imul bp,[cs:bp+0x69],word 0x74
00002180  2E7465            cs jz 0x21e8
00002183  7874              js 0x21f9
00002185  002E6669          add [0x6966],ch
00002189  6E                outsb
0000218A  69002E72          imul ax,[bx+si],word 0x722e
0000218E  6F                outsw
0000218F  6461              fs popa
00002191  7461              jz 0x21f4
00002193  002E6568          add [0x6865],ch
00002197  5F                pop di
00002198  667261            o32 jc 0x21fc
0000219B  6D                insw
0000219C  655F              gs pop di
0000219E  686472            push word 0x7264
000021A1  002E6568          add [0x6865],ch
000021A5  5F                pop di
000021A6  667261            o32 jc 0x220a
000021A9  6D                insw
000021AA  65002E696E        add [gs:0x6e69],ch
000021AF  69745F6172        imul si,[si+0x5f],word 0x7261
000021B4  7261              jc 0x2217
000021B6  7900              jns 0x21b8
000021B8  2E66696E695F6172  imul ebp,[cs:bp+0x69],dword 0x7272615f
         -72
000021C1  61                popa
000021C2  7900              jns 0x21c4
000021C4  2E64796E          fs jns 0x2236
000021C8  61                popa
000021C9  6D                insw
000021CA  6963002E67        imul sp,[bp+di+0x0],word 0x672e
000021CF  6F                outsw
000021D0  7400              jz 0x21d2
000021D2  2E676F            cs a32 outsw
000021D5  742E              jz 0x2205
000021D7  706C              jo 0x2245
000021D9  7400              jz 0x21db
000021DB  2E6461            fs popa
000021DE  7461              jz 0x2241
000021E0  002E6273          add [0x7362],ch
000021E4  7300              jnc 0x21e6
000021E6  2E636F6D          arpl [cs:bx+0x6d],bp
000021EA  6D                insw
000021EB  656E              gs outsb
000021ED  7400              jz 0x21ef
000021EF  2E6465627567      bound si,[gs:di+0x67]
000021F5  5F                pop di
000021F6  61                popa
000021F7  7261              jc 0x225a
000021F9  6E                outsb
000021FA  67657300          gs jnc 0x21fe
000021FE  2E6465627567      bound si,[gs:di+0x67]
00002204  5F                pop di
00002205  696E666F00        imul bp,[bp+0x66],word 0x6f
0000220A  2E6465627567      bound si,[gs:di+0x67]
00002210  5F                pop di
00002211  61                popa
00002212  626272            bound sp,[bp+si+0x72]
00002215  657600            gs jna 0x2218
00002218  2E6465627567      bound si,[gs:di+0x67]
0000221E  5F                pop di
0000221F  6C                insb
00002220  696E65002E        imul bp,[bp+0x65],word 0x2e00
00002225  6465627567        bound si,[gs:di+0x67]
0000222A  5F                pop di
0000222B  7374              jnc 0x22a1
0000222D  7200              jc 0x222f
0000222F  0000              add [bx+si],al
00002231  0000              add [bx+si],al
00002233  0000              add [bx+si],al
00002235  0000              add [bx+si],al
00002237  0000              add [bx+si],al
00002239  0000              add [bx+si],al
0000223B  0000              add [bx+si],al
0000223D  0000              add [bx+si],al
0000223F  0000              add [bx+si],al
00002241  0000              add [bx+si],al
00002243  0000              add [bx+si],al
00002245  0000              add [bx+si],al
00002247  0000              add [bx+si],al
00002249  0000              add [bx+si],al
0000224B  0000              add [bx+si],al
0000224D  0000              add [bx+si],al
0000224F  0000              add [bx+si],al
00002251  0000              add [bx+si],al
00002253  0000              add [bx+si],al
00002255  0000              add [bx+si],al
00002257  0000              add [bx+si],al
00002259  0000              add [bx+si],al
0000225B  0000              add [bx+si],al
0000225D  0000              add [bx+si],al
0000225F  0000              add [bx+si],al
00002261  0000              add [bx+si],al
00002263  0000              add [bx+si],al
00002265  0000              add [bx+si],al
00002267  0000              add [bx+si],al
00002269  0000              add [bx+si],al
0000226B  0000              add [bx+si],al
0000226D  0000              add [bx+si],al
0000226F  001B              add [bp+di],bl
00002271  0000              add [bx+si],al
00002273  0001              add [bx+di],al
00002275  0000              add [bx+si],al
00002277  0002              add [bp+si],al
00002279  0000              add [bx+si],al
0000227B  0000              add [bx+si],al
0000227D  0000              add [bx+si],al
0000227F  0038              add [bx+si],bh
00002281  0200              add al,[bx+si]
00002283  0000              add [bx+si],al
00002285  0000              add [bx+si],al
00002287  0038              add [bx+si],bh
00002289  0200              add al,[bx+si]
0000228B  0000              add [bx+si],al
0000228D  0000              add [bx+si],al
0000228F  001C              add [si],bl
00002291  0000              add [bx+si],al
00002293  0000              add [bx+si],al
00002295  0000              add [bx+si],al
00002297  0000              add [bx+si],al
00002299  0000              add [bx+si],al
0000229B  0000              add [bx+si],al
0000229D  0000              add [bx+si],al
0000229F  0001              add [bx+di],al
000022A1  0000              add [bx+si],al
000022A3  0000              add [bx+si],al
000022A5  0000              add [bx+si],al
000022A7  0000              add [bx+si],al
000022A9  0000              add [bx+si],al
000022AB  0000              add [bx+si],al
000022AD  0000              add [bx+si],al
000022AF  0023              add [bp+di],ah
000022B1  0000              add [bx+si],al
000022B3  0007              add [bx],al
000022B5  0000              add [bx+si],al
000022B7  0002              add [bp+si],al
000022B9  0000              add [bx+si],al
000022BB  0000              add [bx+si],al
000022BD  0000              add [bx+si],al
000022BF  005402            add [si+0x2],dl
000022C2  0000              add [bx+si],al
000022C4  0000              add [bx+si],al
000022C6  0000              add [bx+si],al
000022C8  54                push sp
000022C9  0200              add al,[bx+si]
000022CB  0000              add [bx+si],al
000022CD  0000              add [bx+si],al
000022CF  0020              add [bx+si],ah
000022D1  0000              add [bx+si],al
000022D3  0000              add [bx+si],al
000022D5  0000              add [bx+si],al
000022D7  0000              add [bx+si],al
000022D9  0000              add [bx+si],al
000022DB  0000              add [bx+si],al
000022DD  0000              add [bx+si],al
000022DF  0004              add [si],al
000022E1  0000              add [bx+si],al
000022E3  0000              add [bx+si],al
000022E5  0000              add [bx+si],al
000022E7  0000              add [bx+si],al
000022E9  0000              add [bx+si],al
000022EB  0000              add [bx+si],al
000022ED  0000              add [bx+si],al
000022EF  0031              add [bx+di],dh
000022F1  0000              add [bx+si],al
000022F3  0007              add [bx],al
000022F5  0000              add [bx+si],al
000022F7  0002              add [bp+si],al
000022F9  0000              add [bx+si],al
000022FB  0000              add [bx+si],al
000022FD  0000              add [bx+si],al
000022FF  007402            add [si+0x2],dh
00002302  0000              add [bx+si],al
00002304  0000              add [bx+si],al
00002306  0000              add [bx+si],al
00002308  7402              jz 0x230c
0000230A  0000              add [bx+si],al
0000230C  0000              add [bx+si],al
0000230E  0000              add [bx+si],al
00002310  2400              and al,0x0
00002312  0000              add [bx+si],al
00002314  0000              add [bx+si],al
00002316  0000              add [bx+si],al
00002318  0000              add [bx+si],al
0000231A  0000              add [bx+si],al
0000231C  0000              add [bx+si],al
0000231E  0000              add [bx+si],al
00002320  0400              add al,0x0
00002322  0000              add [bx+si],al
00002324  0000              add [bx+si],al
00002326  0000              add [bx+si],al
00002328  0000              add [bx+si],al
0000232A  0000              add [bx+si],al
0000232C  0000              add [bx+si],al
0000232E  0000              add [bx+si],al
00002330  44                inc sp
00002331  0000              add [bx+si],al
00002333  00F6              add dh,dh
00002335  FF                db 0xff
00002336  FF6F02            jmp far [bx+0x2]
00002339  0000              add [bx+si],al
0000233B  0000              add [bx+si],al
0000233D  0000              add [bx+si],al
0000233F  00980200          add [bx+si+0x2],bl
00002343  0000              add [bx+si],al
00002345  0000              add [bx+si],al
00002347  00980200          add [bx+si+0x2],bl
0000234B  0000              add [bx+si],al
0000234D  0000              add [bx+si],al
0000234F  001C              add [si],bl
00002351  0000              add [bx+si],al
00002353  0000              add [bx+si],al
00002355  0000              add [bx+si],al
00002357  0005              add [di],al
00002359  0000              add [bx+si],al
0000235B  0000              add [bx+si],al
0000235D  0000              add [bx+si],al
0000235F  0008              add [bx+si],cl
00002361  0000              add [bx+si],al
00002363  0000              add [bx+si],al
00002365  0000              add [bx+si],al
00002367  0000              add [bx+si],al
00002369  0000              add [bx+si],al
0000236B  0000              add [bx+si],al
0000236D  0000              add [bx+si],al
0000236F  004E00            add [bp+0x0],cl
00002372  0000              add [bx+si],al
00002374  0B00              or ax,[bx+si]
00002376  0000              add [bx+si],al
00002378  0200              add al,[bx+si]
0000237A  0000              add [bx+si],al
0000237C  0000              add [bx+si],al
0000237E  0000              add [bx+si],al
00002380  B80200            mov ax,0x2
00002383  0000              add [bx+si],al
00002385  0000              add [bx+si],al
00002387  00B80200          add [bx+si+0x2],bh
0000238B  0000              add [bx+si],al
0000238D  0000              add [bx+si],al
0000238F  00A80000          add [bx+si+0x0],ch
00002393  0000              add [bx+si],al
00002395  0000              add [bx+si],al
00002397  00060000          add [0x0],al
0000239B  0001              add [bx+di],al
0000239D  0000              add [bx+si],al
0000239F  0008              add [bx+si],cl
000023A1  0000              add [bx+si],al
000023A3  0000              add [bx+si],al
000023A5  0000              add [bx+si],al
000023A7  0018              add [bx+si],bl
000023A9  0000              add [bx+si],al
000023AB  0000              add [bx+si],al
000023AD  0000              add [bx+si],al
000023AF  005600            add [bp+0x0],dl
000023B2  0000              add [bx+si],al
000023B4  0300              add ax,[bx+si]
000023B6  0000              add [bx+si],al
000023B8  0200              add al,[bx+si]
000023BA  0000              add [bx+si],al
000023BC  0000              add [bx+si],al
000023BE  0000              add [bx+si],al
000023C0  60                pusha
000023C1  0300              add ax,[bx+si]
000023C3  0000              add [bx+si],al
000023C5  0000              add [bx+si],al
000023C7  006003            add [bx+si+0x3],ah
000023CA  0000              add [bx+si],al
000023CC  0000              add [bx+si],al
000023CE  0000              add [bx+si],al
000023D0  8400              test [bx+si],al
000023D2  0000              add [bx+si],al
000023D4  0000              add [bx+si],al
000023D6  0000              add [bx+si],al
000023D8  0000              add [bx+si],al
000023DA  0000              add [bx+si],al
000023DC  0000              add [bx+si],al
000023DE  0000              add [bx+si],al
000023E0  0100              add [bx+si],ax
000023E2  0000              add [bx+si],al
000023E4  0000              add [bx+si],al
000023E6  0000              add [bx+si],al
000023E8  0000              add [bx+si],al
000023EA  0000              add [bx+si],al
000023EC  0000              add [bx+si],al
000023EE  0000              add [bx+si],al
000023F0  5E                pop si
000023F1  0000              add [bx+si],al
000023F3  00FF              add bh,bh
000023F5  FF                db 0xff
000023F6  FF6F02            jmp far [bx+0x2]
000023F9  0000              add [bx+si],al
000023FB  0000              add [bx+si],al
000023FD  0000              add [bx+si],al
000023FF  00E4              add ah,ah
00002401  0300              add ax,[bx+si]
00002403  0000              add [bx+si],al
00002405  0000              add [bx+si],al
00002407  00E4              add ah,ah
00002409  0300              add ax,[bx+si]
0000240B  0000              add [bx+si],al
0000240D  0000              add [bx+si],al
0000240F  000E0000          add [0x0],cl
00002413  0000              add [bx+si],al
00002415  0000              add [bx+si],al
00002417  0005              add [di],al
00002419  0000              add [bx+si],al
0000241B  0000              add [bx+si],al
0000241D  0000              add [bx+si],al
0000241F  0002              add [bp+si],al
00002421  0000              add [bx+si],al
00002423  0000              add [bx+si],al
00002425  0000              add [bx+si],al
00002427  0002              add [bp+si],al
00002429  0000              add [bx+si],al
0000242B  0000              add [bx+si],al
0000242D  0000              add [bx+si],al
0000242F  006B00            add [bp+di+0x0],ch
00002432  0000              add [bx+si],al
00002434  FE                db 0xfe
00002435  FF                db 0xff
00002436  FF6F02            jmp far [bx+0x2]
00002439  0000              add [bx+si],al
0000243B  0000              add [bx+si],al
0000243D  0000              add [bx+si],al
0000243F  00F8              add al,bh
00002441  0300              add ax,[bx+si]
00002443  0000              add [bx+si],al
00002445  0000              add [bx+si],al
00002447  00F8              add al,bh
00002449  0300              add ax,[bx+si]
0000244B  0000              add [bx+si],al
0000244D  0000              add [bx+si],al
0000244F  0020              add [bx+si],ah
00002451  0000              add [bx+si],al
00002453  0000              add [bx+si],al
00002455  0000              add [bx+si],al
00002457  00060000          add [0x0],al
0000245B  0001              add [bx+di],al
0000245D  0000              add [bx+si],al
0000245F  0008              add [bx+si],cl
00002461  0000              add [bx+si],al
00002463  0000              add [bx+si],al
00002465  0000              add [bx+si],al
00002467  0000              add [bx+si],al
00002469  0000              add [bx+si],al
0000246B  0000              add [bx+si],al
0000246D  0000              add [bx+si],al
0000246F  007A00            add [bp+si+0x0],bh
00002472  0000              add [bx+si],al
00002474  0400              add al,0x0
00002476  0000              add [bx+si],al
00002478  0200              add al,[bx+si]
0000247A  0000              add [bx+si],al
0000247C  0000              add [bx+si],al
0000247E  0000              add [bx+si],al
00002480  1804              sbb [si],al
00002482  0000              add [bx+si],al
00002484  0000              add [bx+si],al
00002486  0000              add [bx+si],al
00002488  1804              sbb [si],al
0000248A  0000              add [bx+si],al
0000248C  0000              add [bx+si],al
0000248E  0000              add [bx+si],al
00002490  C00000            rol byte [bx+si],byte 0x0
00002493  0000              add [bx+si],al
00002495  0000              add [bx+si],al
00002497  0005              add [di],al
00002499  0000              add [bx+si],al
0000249B  0000              add [bx+si],al
0000249D  0000              add [bx+si],al
0000249F  0008              add [bx+si],cl
000024A1  0000              add [bx+si],al
000024A3  0000              add [bx+si],al
000024A5  0000              add [bx+si],al
000024A7  0018              add [bx+si],bl
000024A9  0000              add [bx+si],al
000024AB  0000              add [bx+si],al
000024AD  0000              add [bx+si],al
000024AF  00840000          add [si+0x0],al
000024B3  0004              add [si],al
000024B5  0000              add [bx+si],al
000024B7  004200            add [bp+si+0x0],al
000024BA  0000              add [bx+si],al
000024BC  0000              add [bx+si],al
000024BE  0000              add [bx+si],al
000024C0  D804              fadd dword [si]
000024C2  0000              add [bx+si],al
000024C4  0000              add [bx+si],al
000024C6  0000              add [bx+si],al
000024C8  D804              fadd dword [si]
000024CA  0000              add [bx+si],al
000024CC  0000              add [bx+si],al
000024CE  0000              add [bx+si],al
000024D0  1800              sbb [bx+si],al
000024D2  0000              add [bx+si],al
000024D4  0000              add [bx+si],al
000024D6  0000              add [bx+si],al
000024D8  050000            add ax,0x0
000024DB  00160000          add [0x0],dl
000024DF  0008              add [bx+si],cl
000024E1  0000              add [bx+si],al
000024E3  0000              add [bx+si],al
000024E5  0000              add [bx+si],al
000024E7  0018              add [bx+si],bl
000024E9  0000              add [bx+si],al
000024EB  0000              add [bx+si],al
000024ED  0000              add [bx+si],al
000024EF  008E0000          add [bp+0x0],cl
000024F3  0001              add [bx+di],al
000024F5  0000              add [bx+si],al
000024F7  00060000          add [0x0],al
000024FB  0000              add [bx+si],al
000024FD  0000              add [bx+si],al
000024FF  00F0              add al,dh
00002501  0400              add al,0x0
00002503  0000              add [bx+si],al
00002505  0000              add [bx+si],al
00002507  00F0              add al,dh
00002509  0400              add al,0x0
0000250B  0000              add [bx+si],al
0000250D  0000              add [bx+si],al
0000250F  0017              add [bx],dl
00002511  0000              add [bx+si],al
00002513  0000              add [bx+si],al
00002515  0000              add [bx+si],al
00002517  0000              add [bx+si],al
00002519  0000              add [bx+si],al
0000251B  0000              add [bx+si],al
0000251D  0000              add [bx+si],al
0000251F  0004              add [si],al
00002521  0000              add [bx+si],al
00002523  0000              add [bx+si],al
00002525  0000              add [bx+si],al
00002527  0000              add [bx+si],al
00002529  0000              add [bx+si],al
0000252B  0000              add [bx+si],al
0000252D  0000              add [bx+si],al
0000252F  00890000          add [bx+di+0x0],cl
00002533  0001              add [bx+di],al
00002535  0000              add [bx+si],al
00002537  00060000          add [0x0],al
0000253B  0000              add [bx+si],al
0000253D  0000              add [bx+si],al
0000253F  0010              add [bx+si],dl
00002541  050000            add ax,0x0
00002544  0000              add [bx+si],al
00002546  0000              add [bx+si],al
00002548  1005              adc [di],al
0000254A  0000              add [bx+si],al
0000254C  0000              add [bx+si],al
0000254E  0000              add [bx+si],al
00002550  2000              and [bx+si],al
00002552  0000              add [bx+si],al
00002554  0000              add [bx+si],al
00002556  0000              add [bx+si],al
00002558  0000              add [bx+si],al
0000255A  0000              add [bx+si],al
0000255C  0000              add [bx+si],al
0000255E  0000              add [bx+si],al
00002560  1000              adc [bx+si],al
00002562  0000              add [bx+si],al
00002564  0000              add [bx+si],al
00002566  0000              add [bx+si],al
00002568  1000              adc [bx+si],al
0000256A  0000              add [bx+si],al
0000256C  0000              add [bx+si],al
0000256E  0000              add [bx+si],al
00002570  94                xchg ax,sp
00002571  0000              add [bx+si],al
00002573  0001              add [bx+di],al
00002575  0000              add [bx+si],al
00002577  00060000          add [0x0],al
0000257B  0000              add [bx+si],al
0000257D  0000              add [bx+si],al
0000257F  0030              add [bx+si],dh
00002581  050000            add ax,0x0
00002584  0000              add [bx+si],al
00002586  0000              add [bx+si],al
00002588  3005              xor [di],al
0000258A  0000              add [bx+si],al
0000258C  0000              add [bx+si],al
0000258E  0000              add [bx+si],al
00002590  91                xchg ax,cx
00002591  0100              add [bx+si],ax
00002593  0000              add [bx+si],al
00002595  0000              add [bx+si],al
00002597  0000              add [bx+si],al
00002599  0000              add [bx+si],al
0000259B  0000              add [bx+si],al
0000259D  0000              add [bx+si],al
0000259F  0010              add [bx+si],dl
000025A1  0000              add [bx+si],al
000025A3  0000              add [bx+si],al
000025A5  0000              add [bx+si],al
000025A7  0000              add [bx+si],al
000025A9  0000              add [bx+si],al
000025AB  0000              add [bx+si],al
000025AD  0000              add [bx+si],al
000025AF  009A0000          add [bp+si+0x0],bl
000025B3  0001              add [bx+di],al
000025B5  0000              add [bx+si],al
000025B7  00060000          add [0x0],al
000025BB  0000              add [bx+si],al
000025BD  0000              add [bx+si],al
000025BF  00C4              add ah,al
000025C1  06                push es
000025C2  0000              add [bx+si],al
000025C4  0000              add [bx+si],al
000025C6  0000              add [bx+si],al
000025C8  C4060000          les ax,[0x0]
000025CC  0000              add [bx+si],al
000025CE  0000              add [bx+si],al
000025D0  0900              or [bx+si],ax
000025D2  0000              add [bx+si],al
000025D4  0000              add [bx+si],al
000025D6  0000              add [bx+si],al
000025D8  0000              add [bx+si],al
000025DA  0000              add [bx+si],al
000025DC  0000              add [bx+si],al
000025DE  0000              add [bx+si],al
000025E0  0400              add al,0x0
000025E2  0000              add [bx+si],al
000025E4  0000              add [bx+si],al
000025E6  0000              add [bx+si],al
000025E8  0000              add [bx+si],al
000025EA  0000              add [bx+si],al
000025EC  0000              add [bx+si],al
000025EE  0000              add [bx+si],al
000025F0  A00000            mov al,[0x0]
000025F3  0001              add [bx+di],al
000025F5  0000              add [bx+si],al
000025F7  0002              add [bp+si],al
000025F9  0000              add [bx+si],al
000025FB  0000              add [bx+si],al
000025FD  0000              add [bx+si],al
000025FF  00D0              add al,dl
00002601  06                push es
00002602  0000              add [bx+si],al
00002604  0000              add [bx+si],al
00002606  0000              add [bx+si],al
00002608  D0060000          rol byte [0x0],1
0000260C  0000              add [bx+si],al
0000260E  0000              add [bx+si],al
00002610  07                pop es
00002611  0000              add [bx+si],al
00002613  0000              add [bx+si],al
00002615  0000              add [bx+si],al
00002617  0000              add [bx+si],al
00002619  0000              add [bx+si],al
0000261B  0000              add [bx+si],al
0000261D  0000              add [bx+si],al
0000261F  0004              add [si],al
00002621  0000              add [bx+si],al
00002623  0000              add [bx+si],al
00002625  0000              add [bx+si],al
00002627  0000              add [bx+si],al
00002629  0000              add [bx+si],al
0000262B  0000              add [bx+si],al
0000262D  0000              add [bx+si],al
0000262F  00A80000          add [bx+si+0x0],ch
00002633  0001              add [bx+di],al
00002635  0000              add [bx+si],al
00002637  0002              add [bp+si],al
00002639  0000              add [bx+si],al
0000263B  0000              add [bx+si],al
0000263D  0000              add [bx+si],al
0000263F  00D8              add al,bl
00002641  06                push es
00002642  0000              add [bx+si],al
00002644  0000              add [bx+si],al
00002646  0000              add [bx+si],al
00002648  D8060000          fadd dword [0x0]
0000264C  0000              add [bx+si],al
0000264E  0000              add [bx+si],al
00002650  3C00              cmp al,0x0
00002652  0000              add [bx+si],al
00002654  0000              add [bx+si],al
00002656  0000              add [bx+si],al
00002658  0000              add [bx+si],al
0000265A  0000              add [bx+si],al
0000265C  0000              add [bx+si],al
0000265E  0000              add [bx+si],al
00002660  0400              add al,0x0
00002662  0000              add [bx+si],al
00002664  0000              add [bx+si],al
00002666  0000              add [bx+si],al
00002668  0000              add [bx+si],al
0000266A  0000              add [bx+si],al
0000266C  0000              add [bx+si],al
0000266E  0000              add [bx+si],al
00002670  B600              mov dh,0x0
00002672  0000              add [bx+si],al
00002674  0100              add [bx+si],ax
00002676  0000              add [bx+si],al
00002678  0200              add al,[bx+si]
0000267A  0000              add [bx+si],al
0000267C  0000              add [bx+si],al
0000267E  0000              add [bx+si],al
00002680  1807              sbb [bx],al
00002682  0000              add [bx+si],al
00002684  0000              add [bx+si],al
00002686  0000              add [bx+si],al
00002688  1807              sbb [bx],al
0000268A  0000              add [bx+si],al
0000268C  0000              add [bx+si],al
0000268E  0000              add [bx+si],al
00002690  1001              adc [bx+di],al
00002692  0000              add [bx+si],al
00002694  0000              add [bx+si],al
00002696  0000              add [bx+si],al
00002698  0000              add [bx+si],al
0000269A  0000              add [bx+si],al
0000269C  0000              add [bx+si],al
0000269E  0000              add [bx+si],al
000026A0  0800              or [bx+si],al
000026A2  0000              add [bx+si],al
000026A4  0000              add [bx+si],al
000026A6  0000              add [bx+si],al
000026A8  0000              add [bx+si],al
000026AA  0000              add [bx+si],al
000026AC  0000              add [bx+si],al
000026AE  0000              add [bx+si],al
000026B0  C00000            rol byte [bx+si],byte 0x0
000026B3  000E0000          add [0x0],cl
000026B7  0003              add [bp+di],al
000026B9  0000              add [bx+si],al
000026BB  0000              add [bx+si],al
000026BD  0000              add [bx+si],al
000026BF  00E8              add al,ch
000026C1  0D2000            or ax,0x20
000026C4  0000              add [bx+si],al
000026C6  0000              add [bx+si],al
000026C8  E80D00            call 0x26d8
000026CB  0000              add [bx+si],al
000026CD  0000              add [bx+si],al
000026CF  0008              add [bx+si],cl
000026D1  0000              add [bx+si],al
000026D3  0000              add [bx+si],al
000026D5  0000              add [bx+si],al
000026D7  0000              add [bx+si],al
000026D9  0000              add [bx+si],al
000026DB  0000              add [bx+si],al
000026DD  0000              add [bx+si],al
000026DF  0008              add [bx+si],cl
000026E1  0000              add [bx+si],al
000026E3  0000              add [bx+si],al
000026E5  0000              add [bx+si],al
000026E7  0008              add [bx+si],cl
000026E9  0000              add [bx+si],al
000026EB  0000              add [bx+si],al
000026ED  0000              add [bx+si],al
000026EF  00CC              add ah,cl
000026F1  0000              add [bx+si],al
000026F3  000F              add [bx],cl
000026F5  0000              add [bx+si],al
000026F7  0003              add [bp+di],al
000026F9  0000              add [bx+si],al
000026FB  0000              add [bx+si],al
000026FD  0000              add [bx+si],al
000026FF  00F0              add al,dh
00002701  0D2000            or ax,0x20
00002704  0000              add [bx+si],al
00002706  0000              add [bx+si],al
00002708  F00D0000          lock or ax,0x0
0000270C  0000              add [bx+si],al
0000270E  0000              add [bx+si],al
00002710  0800              or [bx+si],al
00002712  0000              add [bx+si],al
00002714  0000              add [bx+si],al
00002716  0000              add [bx+si],al
00002718  0000              add [bx+si],al
0000271A  0000              add [bx+si],al
0000271C  0000              add [bx+si],al
0000271E  0000              add [bx+si],al
00002720  0800              or [bx+si],al
00002722  0000              add [bx+si],al
00002724  0000              add [bx+si],al
00002726  0000              add [bx+si],al
00002728  0800              or [bx+si],al
0000272A  0000              add [bx+si],al
0000272C  0000              add [bx+si],al
0000272E  0000              add [bx+si],al
00002730  D800              fadd dword [bx+si]
00002732  0000              add [bx+si],al
00002734  06                push es
00002735  0000              add [bx+si],al
00002737  0003              add [bp+di],al
00002739  0000              add [bx+si],al
0000273B  0000              add [bx+si],al
0000273D  0000              add [bx+si],al
0000273F  00F8              add al,bh
00002741  0D2000            or ax,0x20
00002744  0000              add [bx+si],al
00002746  0000              add [bx+si],al
00002748  F8                clc
00002749  0D0000            or ax,0x0
0000274C  0000              add [bx+si],al
0000274E  0000              add [bx+si],al
00002750  E001              loopne 0x2753
00002752  0000              add [bx+si],al
00002754  0000              add [bx+si],al
00002756  0000              add [bx+si],al
00002758  06                push es
00002759  0000              add [bx+si],al
0000275B  0000              add [bx+si],al
0000275D  0000              add [bx+si],al
0000275F  0008              add [bx+si],cl
00002761  0000              add [bx+si],al
00002763  0000              add [bx+si],al
00002765  0000              add [bx+si],al
00002767  0010              add [bx+si],dl
00002769  0000              add [bx+si],al
0000276B  0000              add [bx+si],al
0000276D  0000              add [bx+si],al
0000276F  00E1              add cl,ah
00002771  0000              add [bx+si],al
00002773  0001              add [bx+di],al
00002775  0000              add [bx+si],al
00002777  0003              add [bp+di],al
00002779  0000              add [bx+si],al
0000277B  0000              add [bx+si],al
0000277D  0000              add [bx+si],al
0000277F  00D8              add al,bl
00002781  0F                db 0x0f
00002782  2000              and [bx+si],al
00002784  0000              add [bx+si],al
00002786  0000              add [bx+si],al
00002788  D80F              fmul dword [bx]
0000278A  0000              add [bx+si],al
0000278C  0000              add [bx+si],al
0000278E  0000              add [bx+si],al
00002790  2800              sub [bx+si],al
00002792  0000              add [bx+si],al
00002794  0000              add [bx+si],al
00002796  0000              add [bx+si],al
00002798  0000              add [bx+si],al
0000279A  0000              add [bx+si],al
0000279C  0000              add [bx+si],al
0000279E  0000              add [bx+si],al
000027A0  0800              or [bx+si],al
000027A2  0000              add [bx+si],al
000027A4  0000              add [bx+si],al
000027A6  0000              add [bx+si],al
000027A8  0800              or [bx+si],al
000027AA  0000              add [bx+si],al
000027AC  0000              add [bx+si],al
000027AE  0000              add [bx+si],al
000027B0  E600              out 0x0,al
000027B2  0000              add [bx+si],al
000027B4  0100              add [bx+si],ax
000027B6  0000              add [bx+si],al
000027B8  0300              add ax,[bx+si]
000027BA  0000              add [bx+si],al
000027BC  0000              add [bx+si],al
000027BE  0000              add [bx+si],al
000027C0  0010              add [bx+si],dl
000027C2  2000              and [bx+si],al
000027C4  0000              add [bx+si],al
000027C6  0000              add [bx+si],al
000027C8  0010              add [bx+si],dl
000027CA  0000              add [bx+si],al
000027CC  0000              add [bx+si],al
000027CE  0000              add [bx+si],al
000027D0  2000              and [bx+si],al
000027D2  0000              add [bx+si],al
000027D4  0000              add [bx+si],al
000027D6  0000              add [bx+si],al
000027D8  0000              add [bx+si],al
000027DA  0000              add [bx+si],al
000027DC  0000              add [bx+si],al
000027DE  0000              add [bx+si],al
000027E0  0800              or [bx+si],al
000027E2  0000              add [bx+si],al
000027E4  0000              add [bx+si],al
000027E6  0000              add [bx+si],al
000027E8  0800              or [bx+si],al
000027EA  0000              add [bx+si],al
000027EC  0000              add [bx+si],al
000027EE  0000              add [bx+si],al
000027F0  EF                out dx,ax
000027F1  0000              add [bx+si],al
000027F3  0001              add [bx+di],al
000027F5  0000              add [bx+si],al
000027F7  0003              add [bp+di],al
000027F9  0000              add [bx+si],al
000027FB  0000              add [bx+si],al
000027FD  0000              add [bx+si],al
000027FF  0020              add [bx+si],ah
00002801  1020              adc [bx+si],ah
00002803  0000              add [bx+si],al
00002805  0000              add [bx+si],al
00002807  0020              add [bx+si],ah
00002809  1000              adc [bx+si],al
0000280B  0000              add [bx+si],al
0000280D  0000              add [bx+si],al
0000280F  0010              add [bx+si],dl
00002811  0000              add [bx+si],al
00002813  0000              add [bx+si],al
00002815  0000              add [bx+si],al
00002817  0000              add [bx+si],al
00002819  0000              add [bx+si],al
0000281B  0000              add [bx+si],al
0000281D  0000              add [bx+si],al
0000281F  0008              add [bx+si],cl
00002821  0000              add [bx+si],al
00002823  0000              add [bx+si],al
00002825  0000              add [bx+si],al
00002827  0000              add [bx+si],al
00002829  0000              add [bx+si],al
0000282B  0000              add [bx+si],al
0000282D  0000              add [bx+si],al
0000282F  00F5              add ch,dh
00002831  0000              add [bx+si],al
00002833  0008              add [bx+si],cl
00002835  0000              add [bx+si],al
00002837  0003              add [bp+di],al
00002839  0000              add [bx+si],al
0000283B  0000              add [bx+si],al
0000283D  0000              add [bx+si],al
0000283F  0030              add [bx+si],dh
00002841  1020              adc [bx+si],ah
00002843  0000              add [bx+si],al
00002845  0000              add [bx+si],al
00002847  0030              add [bx+si],dh
00002849  1000              adc [bx+si],al
0000284B  0000              add [bx+si],al
0000284D  0000              add [bx+si],al
0000284F  0008              add [bx+si],cl
00002851  0000              add [bx+si],al
00002853  0000              add [bx+si],al
00002855  0000              add [bx+si],al
00002857  0000              add [bx+si],al
00002859  0000              add [bx+si],al
0000285B  0000              add [bx+si],al
0000285D  0000              add [bx+si],al
0000285F  0001              add [bx+di],al
00002861  0000              add [bx+si],al
00002863  0000              add [bx+si],al
00002865  0000              add [bx+si],al
00002867  0000              add [bx+si],al
00002869  0000              add [bx+si],al
0000286B  0000              add [bx+si],al
0000286D  0000              add [bx+si],al
0000286F  00FA              add dl,bh
00002871  0000              add [bx+si],al
00002873  0001              add [bx+di],al
00002875  0000              add [bx+si],al
00002877  0030              add [bx+si],dh
00002879  0000              add [bx+si],al
0000287B  0000              add [bx+si],al
0000287D  0000              add [bx+si],al
0000287F  0000              add [bx+si],al
00002881  0000              add [bx+si],al
00002883  0000              add [bx+si],al
00002885  0000              add [bx+si],al
00002887  0030              add [bx+si],dh
00002889  1000              adc [bx+si],al
0000288B  0000              add [bx+si],al
0000288D  0000              add [bx+si],al
0000288F  0011              add [bx+di],dl
00002891  0000              add [bx+si],al
00002893  0000              add [bx+si],al
00002895  0000              add [bx+si],al
00002897  0000              add [bx+si],al
00002899  0000              add [bx+si],al
0000289B  0000              add [bx+si],al
0000289D  0000              add [bx+si],al
0000289F  0001              add [bx+di],al
000028A1  0000              add [bx+si],al
000028A3  0000              add [bx+si],al
000028A5  0000              add [bx+si],al
000028A7  0001              add [bx+di],al
000028A9  0000              add [bx+si],al
000028AB  0000              add [bx+si],al
000028AD  0000              add [bx+si],al
000028AF  0003              add [bp+di],al
000028B1  0100              add [bx+si],ax
000028B3  0001              add [bx+di],al
000028B5  0000              add [bx+si],al
000028B7  0000              add [bx+si],al
000028B9  0000              add [bx+si],al
000028BB  0000              add [bx+si],al
000028BD  0000              add [bx+si],al
000028BF  0000              add [bx+si],al
000028C1  0000              add [bx+si],al
000028C3  0000              add [bx+si],al
000028C5  0000              add [bx+si],al
000028C7  004110            add [bx+di+0x10],al
000028CA  0000              add [bx+si],al
000028CC  0000              add [bx+si],al
000028CE  0000              add [bx+si],al
000028D0  3000              xor [bx+si],al
000028D2  0000              add [bx+si],al
000028D4  0000              add [bx+si],al
000028D6  0000              add [bx+si],al
000028D8  0000              add [bx+si],al
000028DA  0000              add [bx+si],al
000028DC  0000              add [bx+si],al
000028DE  0000              add [bx+si],al
000028E0  0100              add [bx+si],ax
000028E2  0000              add [bx+si],al
000028E4  0000              add [bx+si],al
000028E6  0000              add [bx+si],al
000028E8  0000              add [bx+si],al
000028EA  0000              add [bx+si],al
000028EC  0000              add [bx+si],al
000028EE  0000              add [bx+si],al
000028F0  1201              adc al,[bx+di]
000028F2  0000              add [bx+si],al
000028F4  0100              add [bx+si],ax
000028F6  0000              add [bx+si],al
000028F8  0000              add [bx+si],al
000028FA  0000              add [bx+si],al
000028FC  0000              add [bx+si],al
000028FE  0000              add [bx+si],al
00002900  0000              add [bx+si],al
00002902  0000              add [bx+si],al
00002904  0000              add [bx+si],al
00002906  0000              add [bx+si],al
00002908  7110              jno 0x291a
0000290A  0000              add [bx+si],al
0000290C  0000              add [bx+si],al
0000290E  0000              add [bx+si],al
00002910  660300            add eax,[bx+si]
00002913  0000              add [bx+si],al
00002915  0000              add [bx+si],al
00002917  0000              add [bx+si],al
00002919  0000              add [bx+si],al
0000291B  0000              add [bx+si],al
0000291D  0000              add [bx+si],al
0000291F  0001              add [bx+di],al
00002921  0000              add [bx+si],al
00002923  0000              add [bx+si],al
00002925  0000              add [bx+si],al
00002927  0000              add [bx+si],al
00002929  0000              add [bx+si],al
0000292B  0000              add [bx+si],al
0000292D  0000              add [bx+si],al
0000292F  001E0100          add [0x1],bl
00002933  0001              add [bx+di],al
00002935  0000              add [bx+si],al
00002937  0000              add [bx+si],al
00002939  0000              add [bx+si],al
0000293B  0000              add [bx+si],al
0000293D  0000              add [bx+si],al
0000293F  0000              add [bx+si],al
00002941  0000              add [bx+si],al
00002943  0000              add [bx+si],al
00002945  0000              add [bx+si],al
00002947  00D7              add bh,dl
00002949  1300              adc ax,[bx+si]
0000294B  0000              add [bx+si],al
0000294D  0000              add [bx+si],al
0000294F  0008              add [bx+si],cl
00002951  0100              add [bx+si],ax
00002953  0000              add [bx+si],al
00002955  0000              add [bx+si],al
00002957  0000              add [bx+si],al
00002959  0000              add [bx+si],al
0000295B  0000              add [bx+si],al
0000295D  0000              add [bx+si],al
0000295F  0001              add [bx+di],al
00002961  0000              add [bx+si],al
00002963  0000              add [bx+si],al
00002965  0000              add [bx+si],al
00002967  0000              add [bx+si],al
00002969  0000              add [bx+si],al
0000296B  0000              add [bx+si],al
0000296D  0000              add [bx+si],al
0000296F  002C              add [si],ch
00002971  0100              add [bx+si],ax
00002973  0001              add [bx+di],al
00002975  0000              add [bx+si],al
00002977  0000              add [bx+si],al
00002979  0000              add [bx+si],al
0000297B  0000              add [bx+si],al
0000297D  0000              add [bx+si],al
0000297F  0000              add [bx+si],al
00002981  0000              add [bx+si],al
00002983  0000              add [bx+si],al
00002985  0000              add [bx+si],al
00002987  00DF              add bh,bl
00002989  1400              adc al,0x0
0000298B  0000              add [bx+si],al
0000298D  0000              add [bx+si],al
0000298F  00D2              add dl,dl
00002991  0000              add [bx+si],al
00002993  0000              add [bx+si],al
00002995  0000              add [bx+si],al
00002997  0000              add [bx+si],al
00002999  0000              add [bx+si],al
0000299B  0000              add [bx+si],al
0000299D  0000              add [bx+si],al
0000299F  0001              add [bx+di],al
000029A1  0000              add [bx+si],al
000029A3  0000              add [bx+si],al
000029A5  0000              add [bx+si],al
000029A7  0000              add [bx+si],al
000029A9  0000              add [bx+si],al
000029AB  0000              add [bx+si],al
000029AD  0000              add [bx+si],al
000029AF  0038              add [bx+si],bh
000029B1  0100              add [bx+si],ax
000029B3  0001              add [bx+di],al
000029B5  0000              add [bx+si],al
000029B7  0030              add [bx+si],dh
000029B9  0000              add [bx+si],al
000029BB  0000              add [bx+si],al
000029BD  0000              add [bx+si],al
000029BF  0000              add [bx+si],al
000029C1  0000              add [bx+si],al
000029C3  0000              add [bx+si],al
000029C5  0000              add [bx+si],al
000029C7  00B11500          add [bx+di+0x15],dh
000029CB  0000              add [bx+si],al
000029CD  0000              add [bx+si],al
000029CF  00960200          add [bp+0x2],dl
000029D3  0000              add [bx+si],al
000029D5  0000              add [bx+si],al
000029D7  0000              add [bx+si],al
000029D9  0000              add [bx+si],al
000029DB  0000              add [bx+si],al
000029DD  0000              add [bx+si],al
000029DF  0001              add [bx+di],al
000029E1  0000              add [bx+si],al
000029E3  0000              add [bx+si],al
000029E5  0000              add [bx+si],al
000029E7  0001              add [bx+di],al
000029E9  0000              add [bx+si],al
000029EB  0000              add [bx+si],al
000029ED  0000              add [bx+si],al
000029EF  0001              add [bx+di],al
000029F1  0000              add [bx+si],al
000029F3  0002              add [bp+si],al
000029F5  0000              add [bx+si],al
000029F7  0000              add [bx+si],al
000029F9  0000              add [bx+si],al
000029FB  0000              add [bx+si],al
000029FD  0000              add [bx+si],al
000029FF  0000              add [bx+si],al
00002A01  0000              add [bx+si],al
00002A03  0000              add [bx+si],al
00002A05  0000              add [bx+si],al
00002A07  004818            add [bx+si+0x18],cl
00002A0A  0000              add [bx+si],al
00002A0C  0000              add [bx+si],al
00002A0E  0000              add [bx+si],al
00002A10  90                nop
00002A11  06                push es
00002A12  0000              add [bx+si],al
00002A14  0000              add [bx+si],al
00002A16  0000              add [bx+si],al
00002A18  2000              and [bx+si],al
00002A1A  0000              add [bx+si],al
00002A1C  3100              xor [bx+si],ax
00002A1E  0000              add [bx+si],al
00002A20  0800              or [bx+si],al
00002A22  0000              add [bx+si],al
00002A24  0000              add [bx+si],al
00002A26  0000              add [bx+si],al
00002A28  1800              sbb [bx+si],al
00002A2A  0000              add [bx+si],al
00002A2C  0000              add [bx+si],al
00002A2E  0000              add [bx+si],al
00002A30  0900              or [bx+si],ax
00002A32  0000              add [bx+si],al
00002A34  0300              add ax,[bx+si]
00002A36  0000              add [bx+si],al
00002A38  0000              add [bx+si],al
00002A3A  0000              add [bx+si],al
00002A3C  0000              add [bx+si],al
00002A3E  0000              add [bx+si],al
00002A40  0000              add [bx+si],al
00002A42  0000              add [bx+si],al
00002A44  0000              add [bx+si],al
00002A46  0000              add [bx+si],al
00002A48  D81E0000          fcomp dword [0x0]
00002A4C  0000              add [bx+si],al
00002A4E  0000              add [bx+si],al
00002A50  1402              adc al,0x2
00002A52  0000              add [bx+si],al
00002A54  0000              add [bx+si],al
00002A56  0000              add [bx+si],al
00002A58  0000              add [bx+si],al
00002A5A  0000              add [bx+si],al
00002A5C  0000              add [bx+si],al
00002A5E  0000              add [bx+si],al
00002A60  0100              add [bx+si],ax
00002A62  0000              add [bx+si],al
00002A64  0000              add [bx+si],al
00002A66  0000              add [bx+si],al
00002A68  0000              add [bx+si],al
00002A6A  0000              add [bx+si],al
00002A6C  0000              add [bx+si],al
00002A6E  0000              add [bx+si],al
00002A70  1100              adc [bx+si],ax
00002A72  0000              add [bx+si],al
00002A74  0300              add ax,[bx+si]
00002A76  0000              add [bx+si],al
00002A78  0000              add [bx+si],al
00002A7A  0000              add [bx+si],al
00002A7C  0000              add [bx+si],al
00002A7E  0000              add [bx+si],al
00002A80  0000              add [bx+si],al
00002A82  0000              add [bx+si],al
00002A84  0000              add [bx+si],al
00002A86  0000              add [bx+si],al
00002A88  EC                in al,dx
00002A89  2000              and [bx+si],al
00002A8B  0000              add [bx+si],al
00002A8D  0000              add [bx+si],al
00002A8F  004301            add [bp+di+0x1],al
00002A92  0000              add [bx+si],al
00002A94  0000              add [bx+si],al
00002A96  0000              add [bx+si],al
00002A98  0000              add [bx+si],al
00002A9A  0000              add [bx+si],al
00002A9C  0000              add [bx+si],al
00002A9E  0000              add [bx+si],al
00002AA0  0100              add [bx+si],ax
00002AA2  0000              add [bx+si],al
00002AA4  0000              add [bx+si],al
00002AA6  0000              add [bx+si],al
00002AA8  0000              add [bx+si],al
00002AAA  0000              add [bx+si],al
00002AAC  0000              add [bx+si],al
00002AAE  0000              add [bx+si],al
00000000  7F45              jg 0x47
00000002  4C                dec sp
00000003  46                inc si
00000004  0201              add al,[bx+di]
00000006  0100              add [bx+si],ax
00000008  0000              add [bx+si],al
0000000A  0000              add [bx+si],al
0000000C  0000              add [bx+si],al
0000000E  0000              add [bx+si],al
00000010  0300              add ax,[bx+si]
00000012  3E0001            add [ds:bx+di],al
00000015  0000              add [bx+si],al
00000017  0030              add [bx+si],dh
00000019  050000            add ax,0x0
0000001C  0000              add [bx+si],al
0000001E  0000              add [bx+si],al
00000020  40                inc ax
00000021  0000              add [bx+si],al
00000023  0000              add [bx+si],al
00000025  0000              add [bx+si],al
00000027  0030              add [bx+si],dh
00000029  2200              and al,[bx+si]
0000002B  0000              add [bx+si],al
0000002D  0000              add [bx+si],al
0000002F  0000              add [bx+si],al
00000031  0000              add [bx+si],al
00000033  004000            add [bx+si+0x0],al
00000036  3800              cmp [bx+si],al
00000038  0900              or [bx+si],ax
0000003A  40                inc ax
0000003B  0022              add [bp+si],ah
0000003D  0021              add [bx+di],ah
0000003F  00060000          add [0x0],al
00000043  0004              add [si],al
00000045  0000              add [bx+si],al
00000047  004000            add [bx+si+0x0],al
0000004A  0000              add [bx+si],al
0000004C  0000              add [bx+si],al
0000004E  0000              add [bx+si],al
00000050  40                inc ax
00000051  0000              add [bx+si],al
00000053  0000              add [bx+si],al
00000055  0000              add [bx+si],al
00000057  004000            add [bx+si+0x0],al
0000005A  0000              add [bx+si],al
0000005C  0000              add [bx+si],al
0000005E  0000              add [bx+si],al
00000060  F8                clc
00000061  0100              add [bx+si],ax
00000063  0000              add [bx+si],al
00000065  0000              add [bx+si],al
00000067  00F8              add al,bh
00000069  0100              add [bx+si],ax
0000006B  0000              add [bx+si],al
0000006D  0000              add [bx+si],al
0000006F  0008              add [bx+si],cl
00000071  0000              add [bx+si],al
00000073  0000              add [bx+si],al
00000075  0000              add [bx+si],al
00000077  0003              add [bp+di],al
00000079  0000              add [bx+si],al
0000007B  0004              add [si],al
0000007D  0000              add [bx+si],al
0000007F  0038              add [bx+si],bh
00000081  0200              add al,[bx+si]
00000083  0000              add [bx+si],al
00000085  0000              add [bx+si],al
00000087  0038              add [bx+si],bh
00000089  0200              add al,[bx+si]
0000008B  0000              add [bx+si],al
0000008D  0000              add [bx+si],al
0000008F  0038              add [bx+si],bh
00000091  0200              add al,[bx+si]
00000093  0000              add [bx+si],al
00000095  0000              add [bx+si],al
00000097  001C              add [si],bl
00000099  0000              add [bx+si],al
0000009B  0000              add [bx+si],al
0000009D  0000              add [bx+si],al
0000009F  001C              add [si],bl
000000A1  0000              add [bx+si],al
000000A3  0000              add [bx+si],al
000000A5  0000              add [bx+si],al
000000A7  0001              add [bx+di],al
000000A9  0000              add [bx+si],al
000000AB  0000              add [bx+si],al
000000AD  0000              add [bx+si],al
000000AF  0001              add [bx+di],al
000000B1  0000              add [bx+si],al
000000B3  0005              add [di],al
000000B5  0000              add [bx+si],al
000000B7  0000              add [bx+si],al
000000B9  0000              add [bx+si],al
000000BB  0000              add [bx+si],al
000000BD  0000              add [bx+si],al
000000BF  0000              add [bx+si],al
000000C1  0000              add [bx+si],al
000000C3  0000              add [bx+si],al
000000C5  0000              add [bx+si],al
000000C7  0000              add [bx+si],al
000000C9  0000              add [bx+si],al
000000CB  0000              add [bx+si],al
000000CD  0000              add [bx+si],al
000000CF  0028              add [bx+si],ch
000000D1  0800              or [bx+si],al
000000D3  0000              add [bx+si],al
000000D5  0000              add [bx+si],al
000000D7  0028              add [bx+si],ch
000000D9  0800              or [bx+si],al
000000DB  0000              add [bx+si],al
000000DD  0000              add [bx+si],al
000000DF  0000              add [bx+si],al
000000E1  0020              add [bx+si],ah
000000E3  0000              add [bx+si],al
000000E5  0000              add [bx+si],al
000000E7  0001              add [bx+di],al
000000E9  0000              add [bx+si],al
000000EB  00060000          add [0x0],al
000000EF  00E8              add al,ch
000000F1  0D0000            or ax,0x0
000000F4  0000              add [bx+si],al
000000F6  0000              add [bx+si],al
000000F8  E80D20            call 0x2108
000000FB  0000              add [bx+si],al
000000FD  0000              add [bx+si],al
000000FF  00E8              add al,ch
00000101  0D2000            or ax,0x20
00000104  0000              add [bx+si],al
00000106  0000              add [bx+si],al
00000108  48                dec ax
00000109  0200              add al,[bx+si]
0000010B  0000              add [bx+si],al
0000010D  0000              add [bx+si],al
0000010F  005002            add [bx+si+0x2],dl
00000112  0000              add [bx+si],al
00000114  0000              add [bx+si],al
00000116  0000              add [bx+si],al
00000118  0000              add [bx+si],al
0000011A  2000              and [bx+si],al
0000011C  0000              add [bx+si],al
0000011E  0000              add [bx+si],al
00000120  0200              add al,[bx+si]
00000122  0000              add [bx+si],al
00000124  06                push es
00000125  0000              add [bx+si],al
00000127  00F8              add al,bh
00000129  0D0000            or ax,0x0
0000012C  0000              add [bx+si],al
0000012E  0000              add [bx+si],al
00000130  F8                clc
00000131  0D2000            or ax,0x20
00000134  0000              add [bx+si],al
00000136  0000              add [bx+si],al
00000138  F8                clc
00000139  0D2000            or ax,0x20
0000013C  0000              add [bx+si],al
0000013E  0000              add [bx+si],al
00000140  E001              loopne 0x143
00000142  0000              add [bx+si],al
00000144  0000              add [bx+si],al
00000146  0000              add [bx+si],al
00000148  E001              loopne 0x14b
0000014A  0000              add [bx+si],al
0000014C  0000              add [bx+si],al
0000014E  0000              add [bx+si],al
00000150  0800              or [bx+si],al
00000152  0000              add [bx+si],al
00000154  0000              add [bx+si],al
00000156  0000              add [bx+si],al
00000158  0400              add al,0x0
0000015A  0000              add [bx+si],al
0000015C  0400              add al,0x0
0000015E  0000              add [bx+si],al
00000160  54                push sp
00000161  0200              add al,[bx+si]
00000163  0000              add [bx+si],al
00000165  0000              add [bx+si],al
00000167  005402            add [si+0x2],dl
0000016A  0000              add [bx+si],al
0000016C  0000              add [bx+si],al
0000016E  0000              add [bx+si],al
00000170  54                push sp
00000171  0200              add al,[bx+si]
00000173  0000              add [bx+si],al
00000175  0000              add [bx+si],al
00000177  004400            add [si+0x0],al
0000017A  0000              add [bx+si],al
0000017C  0000              add [bx+si],al
0000017E  0000              add [bx+si],al
00000180  44                inc sp
00000181  0000              add [bx+si],al
00000183  0000              add [bx+si],al
00000185  0000              add [bx+si],al
00000187  0004              add [si],al
00000189  0000              add [bx+si],al
0000018B  0000              add [bx+si],al
0000018D  0000              add [bx+si],al
0000018F  0050E5            add [bx+si-0x1b],dl
00000192  7464              jz 0x1f8
00000194  0400              add al,0x0
00000196  0000              add [bx+si],al
00000198  D8060000          fadd dword [0x0]
0000019C  0000              add [bx+si],al
0000019E  0000              add [bx+si],al
000001A0  D8060000          fadd dword [0x0]
000001A4  0000              add [bx+si],al
000001A6  0000              add [bx+si],al
000001A8  D8060000          fadd dword [0x0]
000001AC  0000              add [bx+si],al
000001AE  0000              add [bx+si],al
000001B0  3C00              cmp al,0x0
000001B2  0000              add [bx+si],al
000001B4  0000              add [bx+si],al
000001B6  0000              add [bx+si],al
000001B8  3C00              cmp al,0x0
000001BA  0000              add [bx+si],al
000001BC  0000              add [bx+si],al
000001BE  0000              add [bx+si],al
000001C0  0400              add al,0x0
000001C2  0000              add [bx+si],al
000001C4  0000              add [bx+si],al
000001C6  0000              add [bx+si],al
000001C8  51                push cx
000001C9  E574              in ax,0x74
000001CB  6406              fs push es
000001CD  0000              add [bx+si],al
000001CF  0000              add [bx+si],al
000001D1  0000              add [bx+si],al
000001D3  0000              add [bx+si],al
000001D5  0000              add [bx+si],al
000001D7  0000              add [bx+si],al
000001D9  0000              add [bx+si],al
000001DB  0000              add [bx+si],al
000001DD  0000              add [bx+si],al
000001DF  0000              add [bx+si],al
000001E1  0000              add [bx+si],al
000001E3  0000              add [bx+si],al
000001E5  0000              add [bx+si],al
000001E7  0000              add [bx+si],al
000001E9  0000              add [bx+si],al
000001EB  0000              add [bx+si],al
000001ED  0000              add [bx+si],al
000001EF  0000              add [bx+si],al
000001F1  0000              add [bx+si],al
000001F3  0000              add [bx+si],al
000001F5  0000              add [bx+si],al
000001F7  0010              add [bx+si],dl
000001F9  0000              add [bx+si],al
000001FB  0000              add [bx+si],al
000001FD  0000              add [bx+si],al
000001FF  0052E5            add [bp+si-0x1b],dl
00000202  7464              jz 0x268
00000204  0400              add al,0x0
00000206  0000              add [bx+si],al
00000208  E80D00            call 0x218
0000020B  0000              add [bx+si],al
0000020D  0000              add [bx+si],al
0000020F  00E8              add al,ch
00000211  0D2000            or ax,0x20
00000214  0000              add [bx+si],al
00000216  0000              add [bx+si],al
00000218  E80D20            call 0x2228
0000021B  0000              add [bx+si],al
0000021D  0000              add [bx+si],al
0000021F  0018              add [bx+si],bl
00000221  0200              add al,[bx+si]
00000223  0000              add [bx+si],al
00000225  0000              add [bx+si],al
00000227  0018              add [bx+si],bl
00000229  0200              add al,[bx+si]
0000022B  0000              add [bx+si],al
0000022D  0000              add [bx+si],al
0000022F  0001              add [bx+di],al
00000231  0000              add [bx+si],al
00000233  0000              add [bx+si],al
00000235  0000              add [bx+si],al
00000237  002F              add [bx],ch
00000239  6C                insb
0000023A  696236342F        imul sp,[bp+si+0x36],word 0x2f34
0000023F  6C                insb
00000240  642D6C69          fs sub ax,0x696c
00000244  6E                outsb
00000245  7578              jnz 0x2bf
00000247  2D7838            sub ax,0x3878
0000024A  362D3634          ss sub ax,0x3436
0000024E  2E736F            cs jnc 0x2c0
00000251  2E3200            xor al,[cs:bx+si]
00000254  0400              add al,0x0
00000256  0000              add [bx+si],al
00000258  1000              adc [bx+si],al
0000025A  0000              add [bx+si],al
0000025C  0100              add [bx+si],ax
0000025E  0000              add [bx+si],al
00000260  47                inc di
00000261  4E                dec si
00000262  55                push bp
00000263  0000              add [bx+si],al
00000265  0000              add [bx+si],al
00000267  0003              add [bp+di],al
00000269  0000              add [bx+si],al
0000026B  0002              add [bp+si],al
0000026D  0000              add [bx+si],al
0000026F  0000              add [bx+si],al
00000271  0000              add [bx+si],al
00000273  0004              add [si],al
00000275  0000              add [bx+si],al
00000277  0014              add [si],dl
00000279  0000              add [bx+si],al
0000027B  0003              add [bp+di],al
0000027D  0000              add [bx+si],al
0000027F  00474E            add [bx+0x4e],al
00000282  55                push bp
00000283  008D8C03          add [di+0x38c],cl
00000287  26CB              es retf
00000289  88BED3B2          mov [bp-0x4d2d],bh
0000028D  85A080A8          test [bx+si-0x5780],sp
00000291  9D                popf
00000292  80AC158FA2        sub byte [si-0x70eb],0xa2
00000297  0301              add ax,[bx+di]
00000299  0000              add [bx+si],al
0000029B  0001              add [bx+di],al
0000029D  0000              add [bx+si],al
0000029F  0001              add [bx+di],al
000002A1  0000              add [bx+si],al
000002A3  0000              add [bx+si],al
000002A5  0000              add [bx+si],al
000002A7  0000              add [bx+si],al
000002A9  0000              add [bx+si],al
000002AB  0000              add [bx+si],al
000002AD  0000              add [bx+si],al
000002AF  0000              add [bx+si],al
000002B1  0000              add [bx+si],al
000002B3  0000              add [bx+si],al
000002B5  0000              add [bx+si],al
000002B7  0000              add [bx+si],al
000002B9  0000              add [bx+si],al
000002BB  0000              add [bx+si],al
000002BD  0000              add [bx+si],al
000002BF  0000              add [bx+si],al
000002C1  0000              add [bx+si],al
000002C3  0000              add [bx+si],al
000002C5  0000              add [bx+si],al
000002C7  0000              add [bx+si],al
000002C9  0000              add [bx+si],al
000002CB  0000              add [bx+si],al
000002CD  0000              add [bx+si],al
000002CF  003F              add [bx],bh
000002D1  0000              add [bx+si],al
000002D3  0020              add [bx+si],ah
000002D5  0000              add [bx+si],al
000002D7  0000              add [bx+si],al
000002D9  0000              add [bx+si],al
000002DB  0000              add [bx+si],al
000002DD  0000              add [bx+si],al
000002DF  0000              add [bx+si],al
000002E1  0000              add [bx+si],al
000002E3  0000              add [bx+si],al
000002E5  0000              add [bx+si],al
000002E7  000B              add [bp+di],cl
000002E9  0000              add [bx+si],al
000002EB  0012              add [bp+si],dl
000002ED  0000              add [bx+si],al
000002EF  0000              add [bx+si],al
000002F1  0000              add [bx+si],al
000002F3  0000              add [bx+si],al
000002F5  0000              add [bx+si],al
000002F7  0000              add [bx+si],al
000002F9  0000              add [bx+si],al
000002FB  0000              add [bx+si],al
000002FD  0000              add [bx+si],al
000002FF  0021              add [bx+di],ah
00000301  0000              add [bx+si],al
00000303  0012              add [bp+si],dl
00000305  0000              add [bx+si],al
00000307  0000              add [bx+si],al
00000309  0000              add [bx+si],al
0000030B  0000              add [bx+si],al
0000030D  0000              add [bx+si],al
0000030F  0000              add [bx+si],al
00000311  0000              add [bx+si],al
00000313  0000              add [bx+si],al
00000315  0000              add [bx+si],al
00000317  005B00            add [bp+di+0x0],bl
0000031A  0000              add [bx+si],al
0000031C  2000              and [bx+si],al
0000031E  0000              add [bx+si],al
00000320  0000              add [bx+si],al
00000322  0000              add [bx+si],al
00000324  0000              add [bx+si],al
00000326  0000              add [bx+si],al
00000328  0000              add [bx+si],al
0000032A  0000              add [bx+si],al
0000032C  0000              add [bx+si],al
0000032E  0000              add [bx+si],al
00000330  6A00              push byte +0x0
00000332  0000              add [bx+si],al
00000334  2000              and [bx+si],al
00000336  0000              add [bx+si],al
00000338  0000              add [bx+si],al
0000033A  0000              add [bx+si],al
0000033C  0000              add [bx+si],al
0000033E  0000              add [bx+si],al
00000340  0000              add [bx+si],al
00000342  0000              add [bx+si],al
00000344  0000              add [bx+si],al
00000346  0000              add [bx+si],al
00000348  1200              adc al,[bx+si]
0000034A  0000              add [bx+si],al
0000034C  2200              and al,[bx+si]
0000034E  0000              add [bx+si],al
00000350  0000              add [bx+si],al
00000352  0000              add [bx+si],al
00000354  0000              add [bx+si],al
00000356  0000              add [bx+si],al
00000358  0000              add [bx+si],al
0000035A  0000              add [bx+si],al
0000035C  0000              add [bx+si],al
0000035E  0000              add [bx+si],al
00000360  006C69            add [si+0x69],ch
00000363  62632E            bound sp,[bp+di+0x2e]
00000366  736F              jnc 0x3d7
00000368  2E36007072        add [ss:bx+si+0x72],dh
0000036D  696E746600        imul bp,[bp+0x74],word 0x66
00000372  5F                pop di
00000373  5F                pop di
00000374  637861            arpl [bx+si+0x61],di
00000377  5F                pop di
00000378  66696E616C697A65  imul ebp,[bp+0x61],dword 0x657a696c
00000380  005F5F            add [bx+0x5f],bl
00000383  6C                insb
00000384  6962635F73        imul sp,[bp+si+0x63],word 0x735f
00000389  7461              jz 0x3ec
0000038B  7274              jc 0x401
0000038D  5F                pop di
0000038E  6D                insw
0000038F  61                popa
00000390  696E00474C        imul bp,[bp+0x0],word 0x4c47
00000395  49                dec cx
00000396  42                inc dx
00000397  43                inc bx
00000398  5F                pop di
00000399  322E322E          xor ch,[0x2e32]
0000039D  35005F            xor ax,0x5f00
000003A0  49                dec cx
000003A1  54                push sp
000003A2  4D                dec bp
000003A3  5F                pop di
000003A4  64657265          gs jc 0x40d
000003A8  676973746572      imul si,[ebx+0x74],word 0x7265
000003AE  54                push sp
000003AF  4D                dec bp
000003B0  43                inc bx
000003B1  6C                insb
000003B2  6F                outsw
000003B3  6E                outsb
000003B4  6554              gs push sp
000003B6  61                popa
000003B7  626C65            bound bp,[si+0x65]
000003BA  005F5F            add [bx+0x5f],bl
000003BD  676D              a32 insw
000003BF  6F                outsw
000003C0  6E                outsb
000003C1  5F                pop di
000003C2  7374              jnc 0x438
000003C4  61                popa
000003C5  7274              jc 0x43b
000003C7  5F                pop di
000003C8  5F                pop di
000003C9  005F49            add [bx+0x49],bl
000003CC  54                push sp
000003CD  4D                dec bp
000003CE  5F                pop di
000003CF  7265              jc 0x436
000003D1  676973746572      imul si,[ebx+0x74],word 0x7265
000003D7  54                push sp
000003D8  4D                dec bp
000003D9  43                inc bx
000003DA  6C                insb
000003DB  6F                outsw
000003DC  6E                outsb
000003DD  6554              gs push sp
000003DF  61                popa
000003E0  626C65            bound bp,[si+0x65]
000003E3  0000              add [bx+si],al
000003E5  0000              add [bx+si],al
000003E7  0002              add [bp+si],al
000003E9  0002              add [bp+si],al
000003EB  0000              add [bx+si],al
000003ED  0000              add [bx+si],al
000003EF  0002              add [bp+si],al
000003F1  0000              add [bx+si],al
000003F3  0000              add [bx+si],al
000003F5  0000              add [bx+si],al
000003F7  0001              add [bx+di],al
000003F9  0001              add [bx+di],al
000003FB  0001              add [bx+di],al
000003FD  0000              add [bx+si],al
000003FF  0010              add [bx+si],dl
00000401  0000              add [bx+si],al
00000403  0000              add [bx+si],al
00000405  0000              add [bx+si],al
00000407  00751A            add [di+0x1a],dh
0000040A  69090000          imul cx,[bx+di],word 0x0
0000040E  0200              add al,[bx+si]
00000410  3300              xor ax,[bx+si]
00000412  0000              add [bx+si],al
00000414  0000              add [bx+si],al
00000416  0000              add [bx+si],al
00000418  E80D20            call 0x2428
0000041B  0000              add [bx+si],al
0000041D  0000              add [bx+si],al
0000041F  0008              add [bx+si],cl
00000421  0000              add [bx+si],al
00000423  0000              add [bx+si],al
00000425  0000              add [bx+si],al
00000427  0010              add [bx+si],dl
00000429  06                push es
0000042A  0000              add [bx+si],al
0000042C  0000              add [bx+si],al
0000042E  0000              add [bx+si],al
00000430  F00D2000          lock or ax,0x20
00000434  0000              add [bx+si],al
00000436  0000              add [bx+si],al
00000438  0800              or [bx+si],al
0000043A  0000              add [bx+si],al
0000043C  0000              add [bx+si],al
0000043E  0000              add [bx+si],al
00000440  D005              rol byte [di],1
00000442  0000              add [bx+si],al
00000444  0000              add [bx+si],al
00000446  0000              add [bx+si],al
00000448  2810              sub [bx+si],dl
0000044A  2000              and [bx+si],al
0000044C  0000              add [bx+si],al
0000044E  0000              add [bx+si],al
00000450  0800              or [bx+si],al
00000452  0000              add [bx+si],al
00000454  0000              add [bx+si],al
00000456  0000              add [bx+si],al
00000458  2810              sub [bx+si],dl
0000045A  2000              and [bx+si],al
0000045C  0000              add [bx+si],al
0000045E  0000              add [bx+si],al
00000460  D80F              fmul dword [bx]
00000462  2000              and [bx+si],al
00000464  0000              add [bx+si],al
00000466  0000              add [bx+si],al
00000468  06                push es
00000469  0000              add [bx+si],al
0000046B  0001              add [bx+di],al
0000046D  0000              add [bx+si],al
0000046F  0000              add [bx+si],al
00000471  0000              add [bx+si],al
00000473  0000              add [bx+si],al
00000475  0000              add [bx+si],al
00000477  00E0              add al,ah
00000479  0F                db 0x0f
0000047A  2000              and [bx+si],al
0000047C  0000              add [bx+si],al
0000047E  0000              add [bx+si],al
00000480  06                push es
00000481  0000              add [bx+si],al
00000483  0003              add [bp+di],al
00000485  0000              add [bx+si],al
00000487  0000              add [bx+si],al
00000489  0000              add [bx+si],al
0000048B  0000              add [bx+si],al
0000048D  0000              add [bx+si],al
0000048F  00E8              add al,ch
00000491  0F                db 0x0f
00000492  2000              and [bx+si],al
00000494  0000              add [bx+si],al
00000496  0000              add [bx+si],al
00000498  06                push es
00000499  0000              add [bx+si],al
0000049B  0004              add [si],al
0000049D  0000              add [bx+si],al
0000049F  0000              add [bx+si],al
000004A1  0000              add [bx+si],al
000004A3  0000              add [bx+si],al
000004A5  0000              add [bx+si],al
000004A7  00F0              add al,dh
000004A9  0F                db 0x0f
000004AA  2000              and [bx+si],al
000004AC  0000              add [bx+si],al
000004AE  0000              add [bx+si],al
000004B0  06                push es
000004B1  0000              add [bx+si],al
000004B3  0005              add [di],al
000004B5  0000              add [bx+si],al
000004B7  0000              add [bx+si],al
000004B9  0000              add [bx+si],al
000004BB  0000              add [bx+si],al
000004BD  0000              add [bx+si],al
000004BF  00F8              add al,bh
000004C1  0F                db 0x0f
000004C2  2000              and [bx+si],al
000004C4  0000              add [bx+si],al
000004C6  0000              add [bx+si],al
000004C8  06                push es
000004C9  0000              add [bx+si],al
000004CB  00060000          add [0x0],al
000004CF  0000              add [bx+si],al
000004D1  0000              add [bx+si],al
000004D3  0000              add [bx+si],al
000004D5  0000              add [bx+si],al
000004D7  0018              add [bx+si],bl
000004D9  1020              adc [bx+si],ah
000004DB  0000              add [bx+si],al
000004DD  0000              add [bx+si],al
000004DF  0007              add [bx],al
000004E1  0000              add [bx+si],al
000004E3  0002              add [bp+si],al
000004E5  0000              add [bx+si],al
000004E7  0000              add [bx+si],al
000004E9  0000              add [bx+si],al
000004EB  0000              add [bx+si],al
000004ED  0000              add [bx+si],al
000004EF  004883            add [bx+si-0x7d],cl
000004F2  EC                in al,dx
000004F3  08488B            or [bx+si-0x75],cl
000004F6  05ED0A            add ax,0xaed
000004F9  2000              and [bx+si],al
000004FB  48                dec ax
000004FC  85C0              test ax,ax
000004FE  7402              jz 0x502
00000500  FFD0              call ax
00000502  48                dec ax
00000503  83C408            add sp,byte +0x8
00000506  C3                ret
00000507  0000              add [bx+si],al
00000509  0000              add [bx+si],al
0000050B  0000              add [bx+si],al
0000050D  0000              add [bx+si],al
0000050F  00FF              add bh,bh
00000511  35F20A            xor ax,0xaf2
00000514  2000              and [bx+si],al
00000516  FF25              jmp [di]
00000518  F4                hlt
00000519  0A20              or ah,[bx+si]
0000051B  000F              add [bx],cl
0000051D  1F                pop ds
0000051E  40                inc ax
0000051F  00FF              add bh,bh
00000521  25F20A            and ax,0xaf2
00000524  2000              and [bx+si],al
00000526  680000            push word 0x0
00000529  0000              add [bx+si],al
0000052B  E9E0FF            jmp 0x50e
0000052E  FF                db 0xff
0000052F  FF31              push word [bx+di]
00000531  ED                in ax,dx
00000532  49                dec cx
00000533  89D1              mov cx,dx
00000535  5E                pop si
00000536  48                dec ax
00000537  89E2              mov dx,sp
00000539  48                dec ax
0000053A  83E4F0            and sp,byte -0x10
0000053D  50                push ax
0000053E  54                push sp
0000053F  4C                dec sp
00000540  8D05              lea ax,[di]
00000542  7A01              jpe 0x545
00000544  0000              add [bx+si],al
00000546  48                dec ax
00000547  8D0D              lea cx,[di]
00000549  0301              add ax,[bx+di]
0000054B  0000              add [bx+si],al
0000054D  48                dec ax
0000054E  8D3D              lea di,[di]
00000550  D900              fld dword [bx+si]
00000552  0000              add [bx+si],al
00000554  FF15              call [di]
00000556  860A              xchg cl,[bp+si]
00000558  2000              and [bx+si],al
0000055A  F4                hlt
0000055B  0F1F4400          nop word [si+0x0]
0000055F  00488D            add [bx+si-0x73],cl
00000562  3DC90A            cmp ax,0xac9
00000565  2000              and [bx+si],al
00000567  48                dec ax
00000568  8D05              lea ax,[di]
0000056A  C20A20            ret 0x200a
0000056D  004839            add [bx+si+0x39],cl
00000570  F8                clc
00000571  7415              jz 0x588
00000573  48                dec ax
00000574  8B05              mov ax,[di]
00000576  5E                pop si
00000577  0A20              or ah,[bx+si]
00000579  004885            add [bx+si-0x7b],cl
0000057C  C0                db 0xc0
0000057D  7409              jz 0x588
0000057F  FFE0              jmp ax
00000581  0F1F800000        nop word [bx+si+0x0]
00000586  0000              add [bx+si],al
00000588  C3                ret
00000589  0F1F800000        nop word [bx+si+0x0]
0000058E  0000              add [bx+si],al
00000590  48                dec ax
00000591  8D3D              lea di,[di]
00000593  99                cwd
00000594  0A20              or ah,[bx+si]
00000596  00488D            add [bx+si-0x73],cl
00000599  35920A            xor ax,0xa92
0000059C  2000              and [bx+si],al
0000059E  48                dec ax
0000059F  29FE              sub si,di
000005A1  48                dec ax
000005A2  C1FE03            sar si,byte 0x3
000005A5  48                dec ax
000005A6  89F0              mov ax,si
000005A8  48                dec ax
000005A9  C1E83F            shr ax,byte 0x3f
000005AC  48                dec ax
000005AD  01C6              add si,ax
000005AF  48                dec ax
000005B0  D1FE              sar si,1
000005B2  7414              jz 0x5c8
000005B4  48                dec ax
000005B5  8B05              mov ax,[di]
000005B7  350A20            xor ax,0x200a
000005BA  004885            add [bx+si-0x7b],cl
000005BD  C0                db 0xc0
000005BE  7408              jz 0x5c8
000005C0  FFE0              jmp ax
000005C2  660F1F4400        nop dword [si+0x0]
000005C7  00C3              add bl,al
000005C9  0F1F800000        nop word [bx+si+0x0]
000005CE  0000              add [bx+si],al
000005D0  803D59            cmp byte [di],0x59
000005D3  0A20              or ah,[bx+si]
000005D5  0000              add [bx+si],al
000005D7  752F              jnz 0x608
000005D9  55                push bp
000005DA  48                dec ax
000005DB  833D16            cmp word [di],byte +0x16
000005DE  0A20              or ah,[bx+si]
000005E0  0000              add [bx+si],al
000005E2  48                dec ax
000005E3  89E5              mov bp,sp
000005E5  740D              jz 0x5f4
000005E7  48                dec ax
000005E8  8B3D              mov di,[di]
000005EA  3A0A              cmp cl,[bp+si]
000005EC  2000              and [bx+si],al
000005EE  FF15              call [di]
000005F0  040A              add al,0xa
000005F2  2000              and [bx+si],al
000005F4  E867FF            call 0x55e
000005F7  FF                db 0xff
000005F8  FFC6              inc si
000005FA  05300A            add ax,0xa30
000005FD  2000              and [bx+si],al
000005FF  015DC3            add [di-0x3d],bx
00000602  660F1F4400        nop dword [si+0x0]
00000607  00C3              add bl,al
00000609  0F1F800000        nop word [bx+si+0x0]
0000060E  0000              add [bx+si],al
00000610  E97BFF            jmp 0x58e
00000613  FF                db 0xff
00000614  FF5548            call [di+0x48]
00000617  89E5              mov bp,sp
00000619  48                dec ax
0000061A  8D3D              lea di,[di]
0000061C  B400              mov ah,0x0
0000061E  0000              add [bx+si],al
00000620  B80000            mov ax,0x0
00000623  0000              add [bx+si],al
00000625  E8F6FE            call 0x51e
00000628  FF                db 0xff
00000629  FF905DC3          call [bx+si-0x3ca3]
0000062D  55                push bp
0000062E  48                dec ax
0000062F  89E5              mov bp,sp
00000631  B80000            mov ax,0x0
00000634  0000              add [bx+si],al
00000636  E8DAFF            call 0x613
00000639  FF                db 0xff
0000063A  FF                db 0xff
0000063B  B80000            mov ax,0x0
0000063E  0000              add [bx+si],al
00000640  5D                pop bp
00000641  C3                ret
00000642  662E0F1F840000    nop dword [cs:si+0x0]
00000649  0000              add [bx+si],al
0000064B  000F              add [bx],cl
0000064D  1F                pop ds
0000064E  40                inc ax
0000064F  004157            add [bx+di+0x57],al
00000652  49                dec cx
00000653  89D7              mov di,dx
00000655  41                inc cx
00000656  56                push si
00000657  49                dec cx
00000658  89F6              mov si,si
0000065A  41                inc cx
0000065B  55                push bp
0000065C  41                inc cx
0000065D  89FD              mov bp,di
0000065F  41                inc cx
00000660  54                push sp
00000661  4C                dec sp
00000662  8D25              lea sp,[di]
00000664  800720            add byte [bx],0x20
00000667  005548            add [di+0x48],dl
0000066A  8D2D              lea bp,[di]
0000066C  800720            add byte [bx],0x20
0000066F  00534C            add [bp+di+0x4c],dl
00000672  29E5              sub bp,sp
00000674  48                dec ax
00000675  83EC08            sub sp,byte +0x8
00000678  67E872FE          call 0x4ee
0000067C  FF                db 0xff
0000067D  FF48C1            dec word [bx+si-0x3f]
00000680  FD                std
00000681  037422            add si,[si+0x22]
00000684  31DB              xor bx,bx
00000686  662E0F1F840000    nop dword [cs:si+0x0]
0000068D  0000              add [bx+si],al
0000068F  004C89            add [si-0x77],cl
00000692  FA                cli
00000693  4C                dec sp
00000694  89F6              mov si,si
00000696  44                inc sp
00000697  89EF              mov di,bp
00000699  41                inc cx
0000069A  FF14              call [si]
0000069C  DC4883            fmul qword [bx+si-0x7d]
0000069F  C3                ret
000006A0  014839            add [bx+si+0x39],cx
000006A3  DD75EA            fnsave [di-0x16]
000006A6  48                dec ax
000006A7  83C408            add sp,byte +0x8
000006AA  5B                pop bx
000006AB  5D                pop bp
000006AC  41                inc cx
000006AD  5C                pop sp
000006AE  41                inc cx
000006AF  5D                pop bp
000006B0  41                inc cx
000006B1  5E                pop si
000006B2  41                inc cx
000006B3  5F                pop di
000006B4  C3                ret
000006B5  90                nop
000006B6  662E0F1F840000    nop dword [cs:si+0x0]
000006BD  0000              add [bx+si],al
000006BF  00C3              add bl,al
000006C1  0000              add [bx+si],al
000006C3  004883            add [bx+si-0x7d],cl
000006C6  EC                in al,dx
000006C7  084883            or [bx+si-0x7d],cl
000006CA  C408              les cx,[bx+si]
000006CC  C3                ret
000006CD  0000              add [bx+si],al
000006CF  0001              add [bx+di],al
000006D1  0002              add [bp+si],al
000006D3  007373            add [bp+di+0x73],dh
000006D6  0000              add [bx+si],al
000006D8  011B              add [bp+di],bx
000006DA  033B              add di,[bp+di]
000006DC  3C00              cmp al,0x0
000006DE  0000              add [bx+si],al
000006E0  06                push es
000006E1  0000              add [bx+si],al
000006E3  0038              add [bx+si],bh
000006E5  FE                db 0xfe
000006E6  FF                db 0xff
000006E7  FF880000          dec word [bx+si+0x0]
000006EB  0058FE            add [bx+si-0x2],bl
000006EE  FF                db 0xff
000006EF  FF5800            call far [bx+si+0x0]
000006F2  0000              add [bx+si],al
000006F4  3DFFFF            cmp ax,0xffff
000006F7  FFB00000          push word [bx+si+0x0]
000006FB  0055FF            add [di-0x1],dl
000006FE  FF                db 0xff
000006FF  FFD0              call ax
00000701  0000              add [bx+si],al
00000703  0078FF            add [bx+si-0x1],bh
00000706  FF                db 0xff
00000707  FFF0              push ax
00000709  0000              add [bx+si],al
0000070B  00E8              add al,ch
0000070D  FF                db 0xff
0000070E  FF                db 0xff
0000070F  FF                db 0xff
00000710  3801              cmp [bx+di],al
00000712  0000              add [bx+si],al
00000714  0000              add [bx+si],al
00000716  0000              add [bx+si],al
00000718  1400              adc al,0x0
0000071A  0000              add [bx+si],al
0000071C  0000              add [bx+si],al
0000071E  0000              add [bx+si],al
00000720  017A52            add [bp+si+0x52],di
00000723  0001              add [bx+di],al
00000725  7810              js 0x737
00000727  011B              add [bp+di],bx
00000729  0C07              or al,0x7
0000072B  08900107          or [bx+si+0x701],dl
0000072F  1014              adc [si],dl
00000731  0000              add [bx+si],al
00000733  001C              add [si],bl
00000735  0000              add [bx+si],al
00000737  00F8              add al,bh
00000739  FD                std
0000073A  FF                db 0xff
0000073B  FF2B              jmp far [bp+di]
0000073D  0000              add [bx+si],al
0000073F  0000              add [bx+si],al
00000741  0000              add [bx+si],al
00000743  0000              add [bx+si],al
00000745  0000              add [bx+si],al
00000747  0014              add [si],dl
00000749  0000              add [bx+si],al
0000074B  0000              add [bx+si],al
0000074D  0000              add [bx+si],al
0000074F  0001              add [bx+di],al
00000751  7A52              jpe 0x7a5
00000753  0001              add [bx+di],al
00000755  7810              js 0x767
00000757  011B              add [bp+di],bx
00000759  0C07              or al,0x7
0000075B  08900100          or [bx+si+0x1],dl
0000075F  0024              add [si],ah
00000761  0000              add [bx+si],al
00000763  001C              add [si],bl
00000765  0000              add [bx+si],al
00000767  00A8FDFF          add [bx+si-0x3],ch
0000076B  FF20              jmp [bx+si]
0000076D  0000              add [bx+si],al
0000076F  0000              add [bx+si],al
00000771  0E                push cs
00000772  10460E            adc [bp+0xe],al
00000775  184A0F            sbb [bp+si+0xf],cl
00000778  0B7708            or si,[bx+0x8]
0000077B  80003F            add byte [bx+si],0x3f
0000077E  1A3B              sbb bh,[bp+di]
00000780  2A33              sub dh,[bp+di]
00000782  2422              and al,0x22
00000784  0000              add [bx+si],al
00000786  0000              add [bx+si],al
00000788  1C00              sbb al,0x0
0000078A  0000              add [bx+si],al
0000078C  44                inc sp
0000078D  0000              add [bx+si],al
0000078F  0085FEFF          add [di-0x2],al
00000793  FF18              call far [bx+si]
00000795  0000              add [bx+si],al
00000797  0000              add [bx+si],al
00000799  41                inc cx
0000079A  0E                push cs
0000079B  10860243          adc [bp+0x4302],al
0000079F  0D0653            or ax,0x5306
000007A2  0C07              or al,0x7
000007A4  0800              or [bx+si],al
000007A6  0000              add [bx+si],al
000007A8  1C00              sbb al,0x0
000007AA  0000              add [bx+si],al
000007AC  640000            add [fs:bx+si],al
000007AF  007DFE            add [di-0x2],bh
000007B2  FF                db 0xff
000007B3  FF15              call [di]
000007B5  0000              add [bx+si],al
000007B7  0000              add [bx+si],al
000007B9  41                inc cx
000007BA  0E                push cs
000007BB  10860243          adc [bp+0x4302],al
000007BF  0D0650            or ax,0x5006
000007C2  0C07              or al,0x7
000007C4  0800              or [bx+si],al
000007C6  0000              add [bx+si],al
000007C8  44                inc sp
000007C9  0000              add [bx+si],al
000007CB  00840000          add [si+0x0],al
000007CF  0080FEFF          add [bx+si-0x2],al
000007D3  FF6500            jmp [di+0x0]
000007D6  0000              add [bx+si],al
000007D8  00420E            add [bp+si+0xe],al
000007DB  108F0245          adc [bx+0x4502],cl
000007DF  0E                push cs
000007E0  188E0345          sbb [bp+0x4503],cl
000007E4  0E                push cs
000007E5  208D0445          and [di+0x4504],cl
000007E9  0E                push cs
000007EA  288C0548          sub [si+0x4805],cl
000007EE  0E                push cs
000007EF  30860648          xor [bp+0x4806],al
000007F3  0E                push cs
000007F4  38830747          cmp [bp+di+0x4707],al
000007F8  0E                push cs
000007F9  40                inc ax
000007FA  720E              jc 0x80a
000007FC  38410E            cmp [bx+di+0xe],al
000007FF  30410E            xor [bx+di+0xe],al
00000802  28420E            sub [bp+si+0xe],al
00000805  20420E            and [bp+si+0xe],al
00000808  18420E            sbb [bp+si+0xe],al
0000080B  10420E            adc [bp+si+0xe],al
0000080E  0800              or [bx+si],al
00000810  1000              adc [bx+si],al
00000812  0000              add [bx+si],al
00000814  CC                int3
00000815  0000              add [bx+si],al
00000817  00A8FEFF          add [bx+si-0x2],ch
0000081B  FF01              inc word [bx+di]
0000081D  0000              add [bx+si],al
0000081F  0000              add [bx+si],al
00000821  0000              add [bx+si],al
00000823  0000              add [bx+si],al
00000825  0000              add [bx+si],al
00000827  0000              add [bx+si],al
00000829  0000              add [bx+si],al
0000082B  0000              add [bx+si],al
0000082D  0000              add [bx+si],al
0000082F  0000              add [bx+si],al
00000831  0000              add [bx+si],al
00000833  0000              add [bx+si],al
00000835  0000              add [bx+si],al
00000837  0000              add [bx+si],al
00000839  0000              add [bx+si],al
0000083B  0000              add [bx+si],al
0000083D  0000              add [bx+si],al
0000083F  0000              add [bx+si],al
00000841  0000              add [bx+si],al
00000843  0000              add [bx+si],al
00000845  0000              add [bx+si],al
00000847  0000              add [bx+si],al
00000849  0000              add [bx+si],al
0000084B  0000              add [bx+si],al
0000084D  0000              add [bx+si],al
0000084F  0000              add [bx+si],al
00000851  0000              add [bx+si],al
00000853  0000              add [bx+si],al
00000855  0000              add [bx+si],al
00000857  0000              add [bx+si],al
00000859  0000              add [bx+si],al
0000085B  0000              add [bx+si],al
0000085D  0000              add [bx+si],al
0000085F  0000              add [bx+si],al
00000861  0000              add [bx+si],al
00000863  0000              add [bx+si],al
00000865  0000              add [bx+si],al
00000867  0000              add [bx+si],al
00000869  0000              add [bx+si],al
0000086B  0000              add [bx+si],al
0000086D  0000              add [bx+si],al
0000086F  0000              add [bx+si],al
00000871  0000              add [bx+si],al
00000873  0000              add [bx+si],al
00000875  0000              add [bx+si],al
00000877  0000              add [bx+si],al
00000879  0000              add [bx+si],al
0000087B  0000              add [bx+si],al
0000087D  0000              add [bx+si],al
0000087F  0000              add [bx+si],al
00000881  0000              add [bx+si],al
00000883  0000              add [bx+si],al
00000885  0000              add [bx+si],al
00000887  0000              add [bx+si],al
00000889  0000              add [bx+si],al
0000088B  0000              add [bx+si],al
0000088D  0000              add [bx+si],al
0000088F  0000              add [bx+si],al
00000891  0000              add [bx+si],al
00000893  0000              add [bx+si],al
00000895  0000              add [bx+si],al
00000897  0000              add [bx+si],al
00000899  0000              add [bx+si],al
0000089B  0000              add [bx+si],al
0000089D  0000              add [bx+si],al
0000089F  0000              add [bx+si],al
000008A1  0000              add [bx+si],al
000008A3  0000              add [bx+si],al
000008A5  0000              add [bx+si],al
000008A7  0000              add [bx+si],al
000008A9  0000              add [bx+si],al
000008AB  0000              add [bx+si],al
000008AD  0000              add [bx+si],al
000008AF  0000              add [bx+si],al
000008B1  0000              add [bx+si],al
000008B3  0000              add [bx+si],al
000008B5  0000              add [bx+si],al
000008B7  0000              add [bx+si],al
000008B9  0000              add [bx+si],al
000008BB  0000              add [bx+si],al
000008BD  0000              add [bx+si],al
000008BF  0000              add [bx+si],al
000008C1  0000              add [bx+si],al
000008C3  0000              add [bx+si],al
000008C5  0000              add [bx+si],al
000008C7  0000              add [bx+si],al
000008C9  0000              add [bx+si],al
000008CB  0000              add [bx+si],al
000008CD  0000              add [bx+si],al
000008CF  0000              add [bx+si],al
000008D1  0000              add [bx+si],al
000008D3  0000              add [bx+si],al
000008D5  0000              add [bx+si],al
000008D7  0000              add [bx+si],al
000008D9  0000              add [bx+si],al
000008DB  0000              add [bx+si],al
000008DD  0000              add [bx+si],al
000008DF  0000              add [bx+si],al
000008E1  0000              add [bx+si],al
000008E3  0000              add [bx+si],al
000008E5  0000              add [bx+si],al
000008E7  0000              add [bx+si],al
000008E9  0000              add [bx+si],al
000008EB  0000              add [bx+si],al
000008ED  0000              add [bx+si],al
000008EF  0000              add [bx+si],al
000008F1  0000              add [bx+si],al
000008F3  0000              add [bx+si],al
000008F5  0000              add [bx+si],al
000008F7  0000              add [bx+si],al
000008F9  0000              add [bx+si],al
000008FB  0000              add [bx+si],al
000008FD  0000              add [bx+si],al
000008FF  0000              add [bx+si],al
00000901  0000              add [bx+si],al
00000903  0000              add [bx+si],al
00000905  0000              add [bx+si],al
00000907  0000              add [bx+si],al
00000909  0000              add [bx+si],al
0000090B  0000              add [bx+si],al
0000090D  0000              add [bx+si],al
0000090F  0000              add [bx+si],al
00000911  0000              add [bx+si],al
00000913  0000              add [bx+si],al
00000915  0000              add [bx+si],al
00000917  0000              add [bx+si],al
00000919  0000              add [bx+si],al
0000091B  0000              add [bx+si],al
0000091D  0000              add [bx+si],al
0000091F  0000              add [bx+si],al
00000921  0000              add [bx+si],al
00000923  0000              add [bx+si],al
00000925  0000              add [bx+si],al
00000927  0000              add [bx+si],al
00000929  0000              add [bx+si],al
0000092B  0000              add [bx+si],al
0000092D  0000              add [bx+si],al
0000092F  0000              add [bx+si],al
00000931  0000              add [bx+si],al
00000933  0000              add [bx+si],al
00000935  0000              add [bx+si],al
00000937  0000              add [bx+si],al
00000939  0000              add [bx+si],al
0000093B  0000              add [bx+si],al
0000093D  0000              add [bx+si],al
0000093F  0000              add [bx+si],al
00000941  0000              add [bx+si],al
00000943  0000              add [bx+si],al
00000945  0000              add [bx+si],al
00000947  0000              add [bx+si],al
00000949  0000              add [bx+si],al
0000094B  0000              add [bx+si],al
0000094D  0000              add [bx+si],al
0000094F  0000              add [bx+si],al
00000951  0000              add [bx+si],al
00000953  0000              add [bx+si],al
00000955  0000              add [bx+si],al
00000957  0000              add [bx+si],al
00000959  0000              add [bx+si],al
0000095B  0000              add [bx+si],al
0000095D  0000              add [bx+si],al
0000095F  0000              add [bx+si],al
00000961  0000              add [bx+si],al
00000963  0000              add [bx+si],al
00000965  0000              add [bx+si],al
00000967  0000              add [bx+si],al
00000969  0000              add [bx+si],al
0000096B  0000              add [bx+si],al
0000096D  0000              add [bx+si],al
0000096F  0000              add [bx+si],al
00000971  0000              add [bx+si],al
00000973  0000              add [bx+si],al
00000975  0000              add [bx+si],al
00000977  0000              add [bx+si],al
00000979  0000              add [bx+si],al
0000097B  0000              add [bx+si],al
0000097D  0000              add [bx+si],al
0000097F  0000              add [bx+si],al
00000981  0000              add [bx+si],al
00000983  0000              add [bx+si],al
00000985  0000              add [bx+si],al
00000987  0000              add [bx+si],al
00000989  0000              add [bx+si],al
0000098B  0000              add [bx+si],al
0000098D  0000              add [bx+si],al
0000098F  0000              add [bx+si],al
00000991  0000              add [bx+si],al
00000993  0000              add [bx+si],al
00000995  0000              add [bx+si],al
00000997  0000              add [bx+si],al
00000999  0000              add [bx+si],al
0000099B  0000              add [bx+si],al
0000099D  0000              add [bx+si],al
0000099F  0000              add [bx+si],al
000009A1  0000              add [bx+si],al
000009A3  0000              add [bx+si],al
000009A5  0000              add [bx+si],al
000009A7  0000              add [bx+si],al
000009A9  0000              add [bx+si],al
000009AB  0000              add [bx+si],al
000009AD  0000              add [bx+si],al
000009AF  0000              add [bx+si],al
000009B1  0000              add [bx+si],al
000009B3  0000              add [bx+si],al
000009B5  0000              add [bx+si],al
000009B7  0000              add [bx+si],al
000009B9  0000              add [bx+si],al
000009BB  0000              add [bx+si],al
000009BD  0000              add [bx+si],al
000009BF  0000              add [bx+si],al
000009C1  0000              add [bx+si],al
000009C3  0000              add [bx+si],al
000009C5  0000              add [bx+si],al
000009C7  0000              add [bx+si],al
000009C9  0000              add [bx+si],al
000009CB  0000              add [bx+si],al
000009CD  0000              add [bx+si],al
000009CF  0000              add [bx+si],al
000009D1  0000              add [bx+si],al
000009D3  0000              add [bx+si],al
000009D5  0000              add [bx+si],al
000009D7  0000              add [bx+si],al
000009D9  0000              add [bx+si],al
000009DB  0000              add [bx+si],al
000009DD  0000              add [bx+si],al
000009DF  0000              add [bx+si],al
000009E1  0000              add [bx+si],al
000009E3  0000              add [bx+si],al
000009E5  0000              add [bx+si],al
000009E7  0000              add [bx+si],al
000009E9  0000              add [bx+si],al
000009EB  0000              add [bx+si],al
000009ED  0000              add [bx+si],al
000009EF  0000              add [bx+si],al
000009F1  0000              add [bx+si],al
000009F3  0000              add [bx+si],al
000009F5  0000              add [bx+si],al
000009F7  0000              add [bx+si],al
000009F9  0000              add [bx+si],al
000009FB  0000              add [bx+si],al
000009FD  0000              add [bx+si],al
000009FF  0000              add [bx+si],al
00000A01  0000              add [bx+si],al
00000A03  0000              add [bx+si],al
00000A05  0000              add [bx+si],al
00000A07  0000              add [bx+si],al
00000A09  0000              add [bx+si],al
00000A0B  0000              add [bx+si],al
00000A0D  0000              add [bx+si],al
00000A0F  0000              add [bx+si],al
00000A11  0000              add [bx+si],al
00000A13  0000              add [bx+si],al
00000A15  0000              add [bx+si],al
00000A17  0000              add [bx+si],al
00000A19  0000              add [bx+si],al
00000A1B  0000              add [bx+si],al
00000A1D  0000              add [bx+si],al
00000A1F  0000              add [bx+si],al
00000A21  0000              add [bx+si],al
00000A23  0000              add [bx+si],al
00000A25  0000              add [bx+si],al
00000A27  0000              add [bx+si],al
00000A29  0000              add [bx+si],al
00000A2B  0000              add [bx+si],al
00000A2D  0000              add [bx+si],al
00000A2F  0000              add [bx+si],al
00000A31  0000              add [bx+si],al
00000A33  0000              add [bx+si],al
00000A35  0000              add [bx+si],al
00000A37  0000              add [bx+si],al
00000A39  0000              add [bx+si],al
00000A3B  0000              add [bx+si],al
00000A3D  0000              add [bx+si],al
00000A3F  0000              add [bx+si],al
00000A41  0000              add [bx+si],al
00000A43  0000              add [bx+si],al
00000A45  0000              add [bx+si],al
00000A47  0000              add [bx+si],al
00000A49  0000              add [bx+si],al
00000A4B  0000              add [bx+si],al
00000A4D  0000              add [bx+si],al
00000A4F  0000              add [bx+si],al
00000A51  0000              add [bx+si],al
00000A53  0000              add [bx+si],al
00000A55  0000              add [bx+si],al
00000A57  0000              add [bx+si],al
00000A59  0000              add [bx+si],al
00000A5B  0000              add [bx+si],al
00000A5D  0000              add [bx+si],al
00000A5F  0000              add [bx+si],al
00000A61  0000              add [bx+si],al
00000A63  0000              add [bx+si],al
00000A65  0000              add [bx+si],al
00000A67  0000              add [bx+si],al
00000A69  0000              add [bx+si],al
00000A6B  0000              add [bx+si],al
00000A6D  0000              add [bx+si],al
00000A6F  0000              add [bx+si],al
00000A71  0000              add [bx+si],al
00000A73  0000              add [bx+si],al
00000A75  0000              add [bx+si],al
00000A77  0000              add [bx+si],al
00000A79  0000              add [bx+si],al
00000A7B  0000              add [bx+si],al
00000A7D  0000              add [bx+si],al
00000A7F  0000              add [bx+si],al
00000A81  0000              add [bx+si],al
00000A83  0000              add [bx+si],al
00000A85  0000              add [bx+si],al
00000A87  0000              add [bx+si],al
00000A89  0000              add [bx+si],al
00000A8B  0000              add [bx+si],al
00000A8D  0000              add [bx+si],al
00000A8F  0000              add [bx+si],al
00000A91  0000              add [bx+si],al
00000A93  0000              add [bx+si],al
00000A95  0000              add [bx+si],al
00000A97  0000              add [bx+si],al
00000A99  0000              add [bx+si],al
00000A9B  0000              add [bx+si],al
00000A9D  0000              add [bx+si],al
00000A9F  0000              add [bx+si],al
00000AA1  0000              add [bx+si],al
00000AA3  0000              add [bx+si],al
00000AA5  0000              add [bx+si],al
00000AA7  0000              add [bx+si],al
00000AA9  0000              add [bx+si],al
00000AAB  0000              add [bx+si],al
00000AAD  0000              add [bx+si],al
00000AAF  0000              add [bx+si],al
00000AB1  0000              add [bx+si],al
00000AB3  0000              add [bx+si],al
00000AB5  0000              add [bx+si],al
00000AB7  0000              add [bx+si],al
00000AB9  0000              add [bx+si],al
00000ABB  0000              add [bx+si],al
00000ABD  0000              add [bx+si],al
00000ABF  0000              add [bx+si],al
00000AC1  0000              add [bx+si],al
00000AC3  0000              add [bx+si],al
00000AC5  0000              add [bx+si],al
00000AC7  0000              add [bx+si],al
00000AC9  0000              add [bx+si],al
00000ACB  0000              add [bx+si],al
00000ACD  0000              add [bx+si],al
00000ACF  0000              add [bx+si],al
00000AD1  0000              add [bx+si],al
00000AD3  0000              add [bx+si],al
00000AD5  0000              add [bx+si],al
00000AD7  0000              add [bx+si],al
00000AD9  0000              add [bx+si],al
00000ADB  0000              add [bx+si],al
00000ADD  0000              add [bx+si],al
00000ADF  0000              add [bx+si],al
00000AE1  0000              add [bx+si],al
00000AE3  0000              add [bx+si],al
00000AE5  0000              add [bx+si],al
00000AE7  0000              add [bx+si],al
00000AE9  0000              add [bx+si],al
00000AEB  0000              add [bx+si],al
00000AED  0000              add [bx+si],al
00000AEF  0000              add [bx+si],al
00000AF1  0000              add [bx+si],al
00000AF3  0000              add [bx+si],al
00000AF5  0000              add [bx+si],al
00000AF7  0000              add [bx+si],al
00000AF9  0000              add [bx+si],al
00000AFB  0000              add [bx+si],al
00000AFD  0000              add [bx+si],al
00000AFF  0000              add [bx+si],al
00000B01  0000              add [bx+si],al
00000B03  0000              add [bx+si],al
00000B05  0000              add [bx+si],al
00000B07  0000              add [bx+si],al
00000B09  0000              add [bx+si],al
00000B0B  0000              add [bx+si],al
00000B0D  0000              add [bx+si],al
00000B0F  0000              add [bx+si],al
00000B11  0000              add [bx+si],al
00000B13  0000              add [bx+si],al
00000B15  0000              add [bx+si],al
00000B17  0000              add [bx+si],al
00000B19  0000              add [bx+si],al
00000B1B  0000              add [bx+si],al
00000B1D  0000              add [bx+si],al
00000B1F  0000              add [bx+si],al
00000B21  0000              add [bx+si],al
00000B23  0000              add [bx+si],al
00000B25  0000              add [bx+si],al
00000B27  0000              add [bx+si],al
00000B29  0000              add [bx+si],al
00000B2B  0000              add [bx+si],al
00000B2D  0000              add [bx+si],al
00000B2F  0000              add [bx+si],al
00000B31  0000              add [bx+si],al
00000B33  0000              add [bx+si],al
00000B35  0000              add [bx+si],al
00000B37  0000              add [bx+si],al
00000B39  0000              add [bx+si],al
00000B3B  0000              add [bx+si],al
00000B3D  0000              add [bx+si],al
00000B3F  0000              add [bx+si],al
00000B41  0000              add [bx+si],al
00000B43  0000              add [bx+si],al
00000B45  0000              add [bx+si],al
00000B47  0000              add [bx+si],al
00000B49  0000              add [bx+si],al
00000B4B  0000              add [bx+si],al
00000B4D  0000              add [bx+si],al
00000B4F  0000              add [bx+si],al
00000B51  0000              add [bx+si],al
00000B53  0000              add [bx+si],al
00000B55  0000              add [bx+si],al
00000B57  0000              add [bx+si],al
00000B59  0000              add [bx+si],al
00000B5B  0000              add [bx+si],al
00000B5D  0000              add [bx+si],al
00000B5F  0000              add [bx+si],al
00000B61  0000              add [bx+si],al
00000B63  0000              add [bx+si],al
00000B65  0000              add [bx+si],al
00000B67  0000              add [bx+si],al
00000B69  0000              add [bx+si],al
00000B6B  0000              add [bx+si],al
00000B6D  0000              add [bx+si],al
00000B6F  0000              add [bx+si],al
00000B71  0000              add [bx+si],al
00000B73  0000              add [bx+si],al
00000B75  0000              add [bx+si],al
00000B77  0000              add [bx+si],al
00000B79  0000              add [bx+si],al
00000B7B  0000              add [bx+si],al
00000B7D  0000              add [bx+si],al
00000B7F  0000              add [bx+si],al
00000B81  0000              add [bx+si],al
00000B83  0000              add [bx+si],al
00000B85  0000              add [bx+si],al
00000B87  0000              add [bx+si],al
00000B89  0000              add [bx+si],al
00000B8B  0000              add [bx+si],al
00000B8D  0000              add [bx+si],al
00000B8F  0000              add [bx+si],al
00000B91  0000              add [bx+si],al
00000B93  0000              add [bx+si],al
00000B95  0000              add [bx+si],al
00000B97  0000              add [bx+si],al
00000B99  0000              add [bx+si],al
00000B9B  0000              add [bx+si],al
00000B9D  0000              add [bx+si],al
00000B9F  0000              add [bx+si],al
00000BA1  0000              add [bx+si],al
00000BA3  0000              add [bx+si],al
00000BA5  0000              add [bx+si],al
00000BA7  0000              add [bx+si],al
00000BA9  0000              add [bx+si],al
00000BAB  0000              add [bx+si],al
00000BAD  0000              add [bx+si],al
00000BAF  0000              add [bx+si],al
00000BB1  0000              add [bx+si],al
00000BB3  0000              add [bx+si],al
00000BB5  0000              add [bx+si],al
00000BB7  0000              add [bx+si],al
00000BB9  0000              add [bx+si],al
00000BBB  0000              add [bx+si],al
00000BBD  0000              add [bx+si],al
00000BBF  0000              add [bx+si],al
00000BC1  0000              add [bx+si],al
00000BC3  0000              add [bx+si],al
00000BC5  0000              add [bx+si],al
00000BC7  0000              add [bx+si],al
00000BC9  0000              add [bx+si],al
00000BCB  0000              add [bx+si],al
00000BCD  0000              add [bx+si],al
00000BCF  0000              add [bx+si],al
00000BD1  0000              add [bx+si],al
00000BD3  0000              add [bx+si],al
00000BD5  0000              add [bx+si],al
00000BD7  0000              add [bx+si],al
00000BD9  0000              add [bx+si],al
00000BDB  0000              add [bx+si],al
00000BDD  0000              add [bx+si],al
00000BDF  0000              add [bx+si],al
00000BE1  0000              add [bx+si],al
00000BE3  0000              add [bx+si],al
00000BE5  0000              add [bx+si],al
00000BE7  0000              add [bx+si],al
00000BE9  0000              add [bx+si],al
00000BEB  0000              add [bx+si],al
00000BED  0000              add [bx+si],al
00000BEF  0000              add [bx+si],al
00000BF1  0000              add [bx+si],al
00000BF3  0000              add [bx+si],al
00000BF5  0000              add [bx+si],al
00000BF7  0000              add [bx+si],al
00000BF9  0000              add [bx+si],al
00000BFB  0000              add [bx+si],al
00000BFD  0000              add [bx+si],al
00000BFF  0000              add [bx+si],al
00000C01  0000              add [bx+si],al
00000C03  0000              add [bx+si],al
00000C05  0000              add [bx+si],al
00000C07  0000              add [bx+si],al
00000C09  0000              add [bx+si],al
00000C0B  0000              add [bx+si],al
00000C0D  0000              add [bx+si],al
00000C0F  0000              add [bx+si],al
00000C11  0000              add [bx+si],al
00000C13  0000              add [bx+si],al
00000C15  0000              add [bx+si],al
00000C17  0000              add [bx+si],al
00000C19  0000              add [bx+si],al
00000C1B  0000              add [bx+si],al
00000C1D  0000              add [bx+si],al
00000C1F  0000              add [bx+si],al
00000C21  0000              add [bx+si],al
00000C23  0000              add [bx+si],al
00000C25  0000              add [bx+si],al
00000C27  0000              add [bx+si],al
00000C29  0000              add [bx+si],al
00000C2B  0000              add [bx+si],al
00000C2D  0000              add [bx+si],al
00000C2F  0000              add [bx+si],al
00000C31  0000              add [bx+si],al
00000C33  0000              add [bx+si],al
00000C35  0000              add [bx+si],al
00000C37  0000              add [bx+si],al
00000C39  0000              add [bx+si],al
00000C3B  0000              add [bx+si],al
00000C3D  0000              add [bx+si],al
00000C3F  0000              add [bx+si],al
00000C41  0000              add [bx+si],al
00000C43  0000              add [bx+si],al
00000C45  0000              add [bx+si],al
00000C47  0000              add [bx+si],al
00000C49  0000              add [bx+si],al
00000C4B  0000              add [bx+si],al
00000C4D  0000              add [bx+si],al
00000C4F  0000              add [bx+si],al
00000C51  0000              add [bx+si],al
00000C53  0000              add [bx+si],al
00000C55  0000              add [bx+si],al
00000C57  0000              add [bx+si],al
00000C59  0000              add [bx+si],al
00000C5B  0000              add [bx+si],al
00000C5D  0000              add [bx+si],al
00000C5F  0000              add [bx+si],al
00000C61  0000              add [bx+si],al
00000C63  0000              add [bx+si],al
00000C65  0000              add [bx+si],al
00000C67  0000              add [bx+si],al
00000C69  0000              add [bx+si],al
00000C6B  0000              add [bx+si],al
00000C6D  0000              add [bx+si],al
00000C6F  0000              add [bx+si],al
00000C71  0000              add [bx+si],al
00000C73  0000              add [bx+si],al
00000C75  0000              add [bx+si],al
00000C77  0000              add [bx+si],al
00000C79  0000              add [bx+si],al
00000C7B  0000              add [bx+si],al
00000C7D  0000              add [bx+si],al
00000C7F  0000              add [bx+si],al
00000C81  0000              add [bx+si],al
00000C83  0000              add [bx+si],al
00000C85  0000              add [bx+si],al
00000C87  0000              add [bx+si],al
00000C89  0000              add [bx+si],al
00000C8B  0000              add [bx+si],al
00000C8D  0000              add [bx+si],al
00000C8F  0000              add [bx+si],al
00000C91  0000              add [bx+si],al
00000C93  0000              add [bx+si],al
00000C95  0000              add [bx+si],al
00000C97  0000              add [bx+si],al
00000C99  0000              add [bx+si],al
00000C9B  0000              add [bx+si],al
00000C9D  0000              add [bx+si],al
00000C9F  0000              add [bx+si],al
00000CA1  0000              add [bx+si],al
00000CA3  0000              add [bx+si],al
00000CA5  0000              add [bx+si],al
00000CA7  0000              add [bx+si],al
00000CA9  0000              add [bx+si],al
00000CAB  0000              add [bx+si],al
00000CAD  0000              add [bx+si],al
00000CAF  0000              add [bx+si],al
00000CB1  0000              add [bx+si],al
00000CB3  0000              add [bx+si],al
00000CB5  0000              add [bx+si],al
00000CB7  0000              add [bx+si],al
00000CB9  0000              add [bx+si],al
00000CBB  0000              add [bx+si],al
00000CBD  0000              add [bx+si],al
00000CBF  0000              add [bx+si],al
00000CC1  0000              add [bx+si],al
00000CC3  0000              add [bx+si],al
00000CC5  0000              add [bx+si],al
00000CC7  0000              add [bx+si],al
00000CC9  0000              add [bx+si],al
00000CCB  0000              add [bx+si],al
00000CCD  0000              add [bx+si],al
00000CCF  0000              add [bx+si],al
00000CD1  0000              add [bx+si],al
00000CD3  0000              add [bx+si],al
00000CD5  0000              add [bx+si],al
00000CD7  0000              add [bx+si],al
00000CD9  0000              add [bx+si],al
00000CDB  0000              add [bx+si],al
00000CDD  0000              add [bx+si],al
00000CDF  0000              add [bx+si],al
00000CE1  0000              add [bx+si],al
00000CE3  0000              add [bx+si],al
00000CE5  0000              add [bx+si],al
00000CE7  0000              add [bx+si],al
00000CE9  0000              add [bx+si],al
00000CEB  0000              add [bx+si],al
00000CED  0000              add [bx+si],al
00000CEF  0000              add [bx+si],al
00000CF1  0000              add [bx+si],al
00000CF3  0000              add [bx+si],al
00000CF5  0000              add [bx+si],al
00000CF7  0000              add [bx+si],al
00000CF9  0000              add [bx+si],al
00000CFB  0000              add [bx+si],al
00000CFD  0000              add [bx+si],al
00000CFF  0000              add [bx+si],al
00000D01  0000              add [bx+si],al
00000D03  0000              add [bx+si],al
00000D05  0000              add [bx+si],al
00000D07  0000              add [bx+si],al
00000D09  0000              add [bx+si],al
00000D0B  0000              add [bx+si],al
00000D0D  0000              add [bx+si],al
00000D0F  0000              add [bx+si],al
00000D11  0000              add [bx+si],al
00000D13  0000              add [bx+si],al
00000D15  0000              add [bx+si],al
00000D17  0000              add [bx+si],al
00000D19  0000              add [bx+si],al
00000D1B  0000              add [bx+si],al
00000D1D  0000              add [bx+si],al
00000D1F  0000              add [bx+si],al
00000D21  0000              add [bx+si],al
00000D23  0000              add [bx+si],al
00000D25  0000              add [bx+si],al
00000D27  0000              add [bx+si],al
00000D29  0000              add [bx+si],al
00000D2B  0000              add [bx+si],al
00000D2D  0000              add [bx+si],al
00000D2F  0000              add [bx+si],al
00000D31  0000              add [bx+si],al
00000D33  0000              add [bx+si],al
00000D35  0000              add [bx+si],al
00000D37  0000              add [bx+si],al
00000D39  0000              add [bx+si],al
00000D3B  0000              add [bx+si],al
00000D3D  0000              add [bx+si],al
00000D3F  0000              add [bx+si],al
00000D41  0000              add [bx+si],al
00000D43  0000              add [bx+si],al
00000D45  0000              add [bx+si],al
00000D47  0000              add [bx+si],al
00000D49  0000              add [bx+si],al
00000D4B  0000              add [bx+si],al
00000D4D  0000              add [bx+si],al
00000D4F  0000              add [bx+si],al
00000D51  0000              add [bx+si],al
00000D53  0000              add [bx+si],al
00000D55  0000              add [bx+si],al
00000D57  0000              add [bx+si],al
00000D59  0000              add [bx+si],al
00000D5B  0000              add [bx+si],al
00000D5D  0000              add [bx+si],al
00000D5F  0000              add [bx+si],al
00000D61  0000              add [bx+si],al
00000D63  0000              add [bx+si],al
00000D65  0000              add [bx+si],al
00000D67  0000              add [bx+si],al
00000D69  0000              add [bx+si],al
00000D6B  0000              add [bx+si],al
00000D6D  0000              add [bx+si],al
00000D6F  0000              add [bx+si],al
00000D71  0000              add [bx+si],al
00000D73  0000              add [bx+si],al
00000D75  0000              add [bx+si],al
00000D77  0000              add [bx+si],al
00000D79  0000              add [bx+si],al
00000D7B  0000              add [bx+si],al
00000D7D  0000              add [bx+si],al
00000D7F  0000              add [bx+si],al
00000D81  0000              add [bx+si],al
00000D83  0000              add [bx+si],al
00000D85  0000              add [bx+si],al
00000D87  0000              add [bx+si],al
00000D89  0000              add [bx+si],al
00000D8B  0000              add [bx+si],al
00000D8D  0000              add [bx+si],al
00000D8F  0000              add [bx+si],al
00000D91  0000              add [bx+si],al
00000D93  0000              add [bx+si],al
00000D95  0000              add [bx+si],al
00000D97  0000              add [bx+si],al
00000D99  0000              add [bx+si],al
00000D9B  0000              add [bx+si],al
00000D9D  0000              add [bx+si],al
00000D9F  0000              add [bx+si],al
00000DA1  0000              add [bx+si],al
00000DA3  0000              add [bx+si],al
00000DA5  0000              add [bx+si],al
00000DA7  0000              add [bx+si],al
00000DA9  0000              add [bx+si],al
00000DAB  0000              add [bx+si],al
00000DAD  0000              add [bx+si],al
00000DAF  0000              add [bx+si],al
00000DB1  0000              add [bx+si],al
00000DB3  0000              add [bx+si],al
00000DB5  0000              add [bx+si],al
00000DB7  0000              add [bx+si],al
00000DB9  0000              add [bx+si],al
00000DBB  0000              add [bx+si],al
00000DBD  0000              add [bx+si],al
00000DBF  0000              add [bx+si],al
00000DC1  0000              add [bx+si],al
00000DC3  0000              add [bx+si],al
00000DC5  0000              add [bx+si],al
00000DC7  0000              add [bx+si],al
00000DC9  0000              add [bx+si],al
00000DCB  0000              add [bx+si],al
00000DCD  0000              add [bx+si],al
00000DCF  0000              add [bx+si],al
00000DD1  0000              add [bx+si],al
00000DD3  0000              add [bx+si],al
00000DD5  0000              add [bx+si],al
00000DD7  0000              add [bx+si],al
00000DD9  0000              add [bx+si],al
00000DDB  0000              add [bx+si],al
00000DDD  0000              add [bx+si],al
00000DDF  0000              add [bx+si],al
00000DE1  0000              add [bx+si],al
00000DE3  0000              add [bx+si],al
00000DE5  0000              add [bx+si],al
00000DE7  0010              add [bx+si],dl
00000DE9  06                push es
00000DEA  0000              add [bx+si],al
00000DEC  0000              add [bx+si],al
00000DEE  0000              add [bx+si],al
00000DF0  D005              rol byte [di],1
00000DF2  0000              add [bx+si],al
00000DF4  0000              add [bx+si],al
00000DF6  0000              add [bx+si],al
00000DF8  0100              add [bx+si],ax
00000DFA  0000              add [bx+si],al
00000DFC  0000              add [bx+si],al
00000DFE  0000              add [bx+si],al
00000E00  0100              add [bx+si],ax
00000E02  0000              add [bx+si],al
00000E04  0000              add [bx+si],al
00000E06  0000              add [bx+si],al
00000E08  0C00              or al,0x0
00000E0A  0000              add [bx+si],al
00000E0C  0000              add [bx+si],al
00000E0E  0000              add [bx+si],al
00000E10  F00400            lock add al,0x0
00000E13  0000              add [bx+si],al
00000E15  0000              add [bx+si],al
00000E17  000D              add [di],cl
00000E19  0000              add [bx+si],al
00000E1B  0000              add [bx+si],al
00000E1D  0000              add [bx+si],al
00000E1F  00C4              add ah,al
00000E21  06                push es
00000E22  0000              add [bx+si],al
00000E24  0000              add [bx+si],al
00000E26  0000              add [bx+si],al
00000E28  1900              sbb [bx+si],ax
00000E2A  0000              add [bx+si],al
00000E2C  0000              add [bx+si],al
00000E2E  0000              add [bx+si],al
00000E30  E80D20            call 0x2e40
00000E33  0000              add [bx+si],al
00000E35  0000              add [bx+si],al
00000E37  001B              add [bp+di],bl
00000E39  0000              add [bx+si],al
00000E3B  0000              add [bx+si],al
00000E3D  0000              add [bx+si],al
00000E3F  0008              add [bx+si],cl
00000E41  0000              add [bx+si],al
00000E43  0000              add [bx+si],al
00000E45  0000              add [bx+si],al
00000E47  001A              add [bp+si],bl
00000E49  0000              add [bx+si],al
00000E4B  0000              add [bx+si],al
00000E4D  0000              add [bx+si],al
00000E4F  00F0              add al,dh
00000E51  0D2000            or ax,0x20
00000E54  0000              add [bx+si],al
00000E56  0000              add [bx+si],al
00000E58  1C00              sbb al,0x0
00000E5A  0000              add [bx+si],al
00000E5C  0000              add [bx+si],al
00000E5E  0000              add [bx+si],al
00000E60  0800              or [bx+si],al
00000E62  0000              add [bx+si],al
00000E64  0000              add [bx+si],al
00000E66  0000              add [bx+si],al
00000E68  F5                cmc
00000E69  FE                db 0xfe
00000E6A  FF6F00            jmp far [bx+0x0]
00000E6D  0000              add [bx+si],al
00000E6F  00980200          add [bx+si+0x2],bl
00000E73  0000              add [bx+si],al
00000E75  0000              add [bx+si],al
00000E77  0005              add [di],al
00000E79  0000              add [bx+si],al
00000E7B  0000              add [bx+si],al
00000E7D  0000              add [bx+si],al
00000E7F  006003            add [bx+si+0x3],ah
00000E82  0000              add [bx+si],al
00000E84  0000              add [bx+si],al
00000E86  0000              add [bx+si],al
00000E88  06                push es
00000E89  0000              add [bx+si],al
00000E8B  0000              add [bx+si],al
00000E8D  0000              add [bx+si],al
00000E8F  00B80200          add [bx+si+0x2],bh
00000E93  0000              add [bx+si],al
00000E95  0000              add [bx+si],al
00000E97  000A              add [bp+si],cl
00000E99  0000              add [bx+si],al
00000E9B  0000              add [bx+si],al
00000E9D  0000              add [bx+si],al
00000E9F  00840000          add [si+0x0],al
00000EA3  0000              add [bx+si],al
00000EA5  0000              add [bx+si],al
00000EA7  000B              add [bp+di],cl
00000EA9  0000              add [bx+si],al
00000EAB  0000              add [bx+si],al
00000EAD  0000              add [bx+si],al
00000EAF  0018              add [bx+si],bl
00000EB1  0000              add [bx+si],al
00000EB3  0000              add [bx+si],al
00000EB5  0000              add [bx+si],al
00000EB7  0015              add [di],dl
00000EB9  0000              add [bx+si],al
00000EBB  0000              add [bx+si],al
00000EBD  0000              add [bx+si],al
00000EBF  0000              add [bx+si],al
00000EC1  0000              add [bx+si],al
00000EC3  0000              add [bx+si],al
00000EC5  0000              add [bx+si],al
00000EC7  0003              add [bp+di],al
00000EC9  0000              add [bx+si],al
00000ECB  0000              add [bx+si],al
00000ECD  0000              add [bx+si],al
00000ECF  0000              add [bx+si],al
00000ED1  1020              adc [bx+si],ah
00000ED3  0000              add [bx+si],al
00000ED5  0000              add [bx+si],al
00000ED7  0002              add [bp+si],al
00000ED9  0000              add [bx+si],al
00000EDB  0000              add [bx+si],al
00000EDD  0000              add [bx+si],al
00000EDF  0018              add [bx+si],bl
00000EE1  0000              add [bx+si],al
00000EE3  0000              add [bx+si],al
00000EE5  0000              add [bx+si],al
00000EE7  0014              add [si],dl
00000EE9  0000              add [bx+si],al
00000EEB  0000              add [bx+si],al
00000EED  0000              add [bx+si],al
00000EEF  0007              add [bx],al
00000EF1  0000              add [bx+si],al
00000EF3  0000              add [bx+si],al
00000EF5  0000              add [bx+si],al
00000EF7  0017              add [bx],dl
00000EF9  0000              add [bx+si],al
00000EFB  0000              add [bx+si],al
00000EFD  0000              add [bx+si],al
00000EFF  00D8              add al,bl
00000F01  0400              add al,0x0
00000F03  0000              add [bx+si],al
00000F05  0000              add [bx+si],al
00000F07  0007              add [bx],al
00000F09  0000              add [bx+si],al
00000F0B  0000              add [bx+si],al
00000F0D  0000              add [bx+si],al
00000F0F  0018              add [bx+si],bl
00000F11  0400              add al,0x0
00000F13  0000              add [bx+si],al
00000F15  0000              add [bx+si],al
00000F17  0008              add [bx+si],cl
00000F19  0000              add [bx+si],al
00000F1B  0000              add [bx+si],al
00000F1D  0000              add [bx+si],al
00000F1F  00C0              add al,al
00000F21  0000              add [bx+si],al
00000F23  0000              add [bx+si],al
00000F25  0000              add [bx+si],al
00000F27  0009              add [bx+di],cl
00000F29  0000              add [bx+si],al
00000F2B  0000              add [bx+si],al
00000F2D  0000              add [bx+si],al
00000F2F  0018              add [bx+si],bl
00000F31  0000              add [bx+si],al
00000F33  0000              add [bx+si],al
00000F35  0000              add [bx+si],al
00000F37  00FB              add bl,bh
00000F39  FF                db 0xff
00000F3A  FF6F00            jmp far [bx+0x0]
00000F3D  0000              add [bx+si],al
00000F3F  0000              add [bx+si],al
00000F41  0000              add [bx+si],al
00000F43  0800              or [bx+si],al
00000F45  0000              add [bx+si],al
00000F47  00FE              add dh,bh
00000F49  FF                db 0xff
00000F4A  FF6F00            jmp far [bx+0x0]
00000F4D  0000              add [bx+si],al
00000F4F  00F8              add al,bh
00000F51  0300              add ax,[bx+si]
00000F53  0000              add [bx+si],al
00000F55  0000              add [bx+si],al
00000F57  00FF              add bh,bh
00000F59  FF                db 0xff
00000F5A  FF6F00            jmp far [bx+0x0]
00000F5D  0000              add [bx+si],al
00000F5F  0001              add [bx+di],al
00000F61  0000              add [bx+si],al
00000F63  0000              add [bx+si],al
00000F65  0000              add [bx+si],al
00000F67  00F0              add al,dh
00000F69  FF                db 0xff
00000F6A  FF6F00            jmp far [bx+0x0]
00000F6D  0000              add [bx+si],al
00000F6F  00E4              add ah,ah
00000F71  0300              add ax,[bx+si]
00000F73  0000              add [bx+si],al
00000F75  0000              add [bx+si],al
00000F77  00F9              add cl,bh
00000F79  FF                db 0xff
00000F7A  FF6F00            jmp far [bx+0x0]
00000F7D  0000              add [bx+si],al
00000F7F  0003              add [bp+di],al
00000F81  0000              add [bx+si],al
00000F83  0000              add [bx+si],al
00000F85  0000              add [bx+si],al
00000F87  0000              add [bx+si],al
00000F89  0000              add [bx+si],al
00000F8B  0000              add [bx+si],al
00000F8D  0000              add [bx+si],al
00000F8F  0000              add [bx+si],al
00000F91  0000              add [bx+si],al
00000F93  0000              add [bx+si],al
00000F95  0000              add [bx+si],al
00000F97  0000              add [bx+si],al
00000F99  0000              add [bx+si],al
00000F9B  0000              add [bx+si],al
00000F9D  0000              add [bx+si],al
00000F9F  0000              add [bx+si],al
00000FA1  0000              add [bx+si],al
00000FA3  0000              add [bx+si],al
00000FA5  0000              add [bx+si],al
00000FA7  0000              add [bx+si],al
00000FA9  0000              add [bx+si],al
00000FAB  0000              add [bx+si],al
00000FAD  0000              add [bx+si],al
00000FAF  0000              add [bx+si],al
00000FB1  0000              add [bx+si],al
00000FB3  0000              add [bx+si],al
00000FB5  0000              add [bx+si],al
00000FB7  0000              add [bx+si],al
00000FB9  0000              add [bx+si],al
00000FBB  0000              add [bx+si],al
00000FBD  0000              add [bx+si],al
00000FBF  0000              add [bx+si],al
00000FC1  0000              add [bx+si],al
00000FC3  0000              add [bx+si],al
00000FC5  0000              add [bx+si],al
00000FC7  0000              add [bx+si],al
00000FC9  0000              add [bx+si],al
00000FCB  0000              add [bx+si],al
00000FCD  0000              add [bx+si],al
00000FCF  0000              add [bx+si],al
00000FD1  0000              add [bx+si],al
00000FD3  0000              add [bx+si],al
00000FD5  0000              add [bx+si],al
00000FD7  0000              add [bx+si],al
00000FD9  0000              add [bx+si],al
00000FDB  0000              add [bx+si],al
00000FDD  0000              add [bx+si],al
00000FDF  0000              add [bx+si],al
00000FE1  0000              add [bx+si],al
00000FE3  0000              add [bx+si],al
00000FE5  0000              add [bx+si],al
00000FE7  0000              add [bx+si],al
00000FE9  0000              add [bx+si],al
00000FEB  0000              add [bx+si],al
00000FED  0000              add [bx+si],al
00000FEF  0000              add [bx+si],al
00000FF1  0000              add [bx+si],al
00000FF3  0000              add [bx+si],al
00000FF5  0000              add [bx+si],al
00000FF7  0000              add [bx+si],al
00000FF9  0000              add [bx+si],al
00000FFB  0000              add [bx+si],al
00000FFD  0000              add [bx+si],al
00000FFF  00F8              add al,bh
00001001  0D2000            or ax,0x20
00001004  0000              add [bx+si],al
00001006  0000              add [bx+si],al
00001008  0000              add [bx+si],al
0000100A  0000              add [bx+si],al
0000100C  0000              add [bx+si],al
0000100E  0000              add [bx+si],al
00001010  0000              add [bx+si],al
00001012  0000              add [bx+si],al
00001014  0000              add [bx+si],al
00001016  0000              add [bx+si],al
00001018  26050000          es add ax,0x0
0000101C  0000              add [bx+si],al
0000101E  0000              add [bx+si],al
00001020  0000              add [bx+si],al
00001022  0000              add [bx+si],al
00001024  0000              add [bx+si],al
00001026  0000              add [bx+si],al
00001028  2810              sub [bx+si],dl
0000102A  2000              and [bx+si],al
0000102C  0000              add [bx+si],al
0000102E  0000              add [bx+si],al
00001030  47                inc di
00001031  43                inc bx
00001032  43                inc bx
00001033  3A20              cmp ah,[bx+si]
00001035  28474E            sub [bx+0x4e],al
00001038  55                push bp
00001039  2920              sub [bx+si],sp
0000103B  382E312E          cmp [0x2e31],ch
0000103F  3000              xor [bx+si],al
00001041  2C00              sub al,0x0
00001043  0000              add [bx+si],al
00001045  0200              add al,[bx+si]
00001047  0000              add [bx+si],al
00001049  0000              add [bx+si],al
0000104B  0800              or [bx+si],al
0000104D  0000              add [bx+si],al
0000104F  0000              add [bx+si],al
00001051  150600            adc ax,0x6
00001054  0000              add [bx+si],al
00001056  0000              add [bx+si],al
00001058  002D              add [di],ch
0000105A  0000              add [bx+si],al
0000105C  0000              add [bx+si],al
0000105E  0000              add [bx+si],al
00001060  0000              add [bx+si],al
00001062  0000              add [bx+si],al
00001064  0000              add [bx+si],al
00001066  0000              add [bx+si],al
00001068  0000              add [bx+si],al
0000106A  0000              add [bx+si],al
0000106C  0000              add [bx+si],al
0000106E  0000              add [bx+si],al
00001070  006203            add [bp+si+0x3],ah
00001073  0000              add [bx+si],al
00001075  0400              add al,0x0
00001077  0000              add [bx+si],al
00001079  0000              add [bx+si],al
0000107B  0801              or [bx+di],al
0000107D  6C                insb
0000107E  0100              add [bx+si],ax
00001080  000C              add [si],cl
00001082  D101              rol word [bx+di],1
00001084  0000              add [bx+si],al
00001086  0C00              or al,0x0
00001088  0000              add [bx+si],al
0000108A  150600            adc ax,0x6
0000108D  0000              add [bx+si],al
0000108F  0000              add [bx+si],al
00001091  002D              add [di],ch
00001093  0000              add [bx+si],al
00001095  0000              add [bx+si],al
00001097  0000              add [bx+si],al
00001099  0000              add [bx+si],al
0000109B  0000              add [bx+si],al
0000109D  0002              add [bp+si],al
0000109F  6F                outsw
000010A0  0000              add [bx+si],al
000010A2  0002              add [bp+si],al
000010A4  D817              fcom dword [bx]
000010A6  3900              cmp [bx+si],ax
000010A8  0000              add [bx+si],al
000010AA  0308              add cx,[bx+si]
000010AC  07                pop es
000010AD  D801              fadd dword [bx+di]
000010AF  0000              add [bx+si],al
000010B1  0301              add ax,[bx+di]
000010B3  0802              or [bp+si],al
000010B5  0100              add [bx+si],ax
000010B7  0003              add [bp+di],al
000010B9  0207              add al,[bx]
000010BB  59                pop cx
000010BC  0100              add [bx+si],ax
000010BE  0003              add [bp+di],al
000010C0  0407              add al,0x7
000010C2  DD01              fld qword [bx+di]
000010C4  0000              add [bx+si],al
000010C6  0301              add ax,[bx+di]
000010C8  06                push es
000010C9  0401              add al,0x1
000010CB  0000              add [bx+si],al
000010CD  0302              add ax,[bp+si]
000010CF  056500            add ax,0x65
000010D2  0000              add [bx+si],al
000010D4  0404              add al,0x4
000010D6  05696E            add ax,0x6e69
000010D9  7400              jz 0x10db
000010DB  0308              add cx,[bx+si]
000010DD  05BB00            add ax,0xbb
000010E0  0000              add [bx+si],al
000010E2  0202              add al,[bp+si]
000010E4  0200              add al,[bx+si]
000010E6  0003              add [bp+di],al
000010E8  8C19              mov [bx+di],ds
000010EA  6A00              push byte +0x0
000010EC  0000              add [bx+si],al
000010EE  02F8              add bh,al
000010F0  0100              add [bx+si],ax
000010F2  0003              add [bp+di],al
000010F4  8D1B              lea bx,[bp+di]
000010F6  6A00              push byte +0x0
000010F8  0000              add [bx+si],al
000010FA  050806            add ax,0x608
000010FD  08910000          or [bx+di+0x0],dl
00001101  0003              add [bp+di],al
00001103  01060B01          add [0x10b],ax
00001107  0000              add [bx+si],al
00001109  07                pop es
0000110A  91                xchg ax,cx
0000110B  0000              add [bx+si],al
0000110D  0008              add [bx+si],cl
0000110F  F9                stc
00001110  0000              add [bx+si],al
00001112  00D8              add al,bl
00001114  04F5              add al,0xf5
00001116  083B              or [bp+di],bh
00001118  0200              add al,[bx+si]
0000111A  0009              add [bx+di],cl
0000111C  8400              test [bx+si],al
0000111E  0000              add [bx+si],al
00001120  04F6              add al,0xf6
00001122  07                pop es
00001123  6300              arpl [bx+si],ax
00001125  0000              add [bx+si],al
00001127  0009              add [bx+di],cl
00001129  4C                dec sp
0000112A  0100              add [bx+si],ax
0000112C  0004              add [si],al
0000112E  FB                sti
0000112F  098B0000          or [bp+di+0x0],cx
00001133  0008              add [bx+si],cl
00001135  09A10000          or [bx+di+0x0],sp
00001139  0004              add [si],al
0000113B  FC                cld
0000113C  098B0000          or [bp+di+0x0],cx
00001140  0010              add [bx+si],dl
00001142  0935              or [di],si
00001144  0200              add al,[bx+si]
00001146  0004              add [si],al
00001148  FD                std
00001149  098B0000          or [bp+di+0x0],cx
0000114D  0018              add [bx+si],bl
0000114F  0934              or [si],si
00001151  0100              add [bx+si],ax
00001153  0004              add [si],al
00001155  FE09              dec byte [bx+di]
00001157  8B00              mov ax,[bx+si]
00001159  0000              add [bx+si],al
0000115B  2009              and [bx+di],cl
0000115D  7600              jna 0x115f
0000115F  0000              add [bx+si],al
00001161  04FF              add al,0xff
00001163  098B0000          or [bp+di+0x0],cx
00001167  0028              add [bx+si],ch
00001169  0AEA              or ch,dl
0000116B  0100              add [bx+si],ax
0000116D  0004              add [si],al
0000116F  0001              add [bx+di],al
00001171  098B0000          or [bp+di+0x0],cx
00001175  0030              add [bx+si],dh
00001177  0A8B0000          or cl,[bp+di+0x0]
0000117B  0004              add [si],al
0000117D  0101              add [bx+di],ax
0000117F  098B0000          or [bp+di+0x0],cx
00001183  0038              add [bx+si],bh
00001185  0A00              or al,[bx+si]
00001187  0000              add [bx+si],al
00001189  0004              add [si],al
0000118B  0201              add al,[bx+di]
0000118D  098B0000          or [bp+di+0x0],cx
00001191  00400A            add [bx+si+0xa],al
00001194  52                push dx
00001195  0200              add al,[bx+si]
00001197  0004              add [si],al
00001199  0401              add al,0x1
0000119B  098B0000          or [bp+di+0x0],cx
0000119F  00480A            add [bx+si+0xa],cl
000011A2  1102              adc [bp+si],ax
000011A4  0000              add [bx+si],al
000011A6  0405              add al,0x5
000011A8  0109              add [bx+di],cx
000011AA  8B00              mov ax,[bx+si]
000011AC  0000              add [bx+si],al
000011AE  50                push ax
000011AF  0A5800            or bl,[bx+si+0x0]
000011B2  0000              add [bx+si],al
000011B4  0406              add al,0x6
000011B6  0109              add [bx+di],cx
000011B8  8B00              mov ax,[bx+si]
000011BA  0000              add [bx+si],al
000011BC  58                pop ax
000011BD  0A980000          or bl,[bx+si+0x0]
000011C1  0004              add [si],al
000011C3  0801              or [bx+di],al
000011C5  16                push ss
000011C6  7802              js 0x11ca
000011C8  0000              add [bx+si],al
000011CA  60                pusha
000011CB  0A0A              or cl,[bp+si]
000011CD  0200              add al,[bx+si]
000011CF  0004              add [si],al
000011D1  0A01              or al,[bx+di]
000011D3  147E              adc al,0x7e
000011D5  0200              add al,[bx+si]
000011D7  00680A            add [bx+si+0xa],ch
000011DA  6C                insb
000011DB  0200              add al,[bx+si]
000011DD  0004              add [si],al
000011DF  0C01              or al,0x1
000011E1  07                pop es
000011E2  6300              arpl [bx+si],ax
000011E4  0000              add [bx+si],al
000011E6  700A              jo 0x11f2
000011E8  27                daa
000011E9  0200              add al,[bx+si]
000011EB  0004              add [si],al
000011ED  1001              adc [bx+di],al
000011EF  07                pop es
000011F0  6300              arpl [bx+si],ax
000011F2  0000              add [bx+si],al
000011F4  740A              jz 0x1200
000011F6  43                inc bx
000011F7  0000              add [bx+si],al
000011F9  0004              add [si],al
000011FB  1201              adc al,[bx+di]
000011FD  0D7100            or ax,0x71
00001200  0000              add [bx+si],al
00001202  780A              js 0x120e
00001204  C400              les ax,[bx+si]
00001206  0000              add [bx+si],al
00001208  0416              add al,0x16
0000120A  0112              add [bp+si],dx
0000120C  47                inc di
0000120D  0000              add [bx+si],al
0000120F  00800A43          add [bx+si+0x430a],al
00001213  0200              add al,[bx+si]
00001215  0004              add [si],al
00001217  17                pop ss
00001218  010F              add [bx],cx
0000121A  55                push bp
0000121B  0000              add [bx+si],al
0000121D  00820A2A          add [bp+si+0x2a0a],al
00001221  0100              add [bx+si],ax
00001223  0004              add [si],al
00001225  1801              sbb [bx+di],al
00001227  08840200          or [si+0x2],al
0000122B  00830AB5          add [bp+di-0x4af6],al
0000122F  0000              add [bx+si],al
00001231  0004              add [si],al
00001233  1C01              sbb al,0x1
00001235  0F9402            setz [bp+si]
00001238  0000              add [bx+si],al
0000123A  880A              mov [bp+si],cl
0000123C  47                inc di
0000123D  0000              add [bx+si],al
0000123F  0004              add [si],al
00001241  25010F            and ax,0xf01
00001244  7D00              jnl 0x1246
00001246  0000              add [bx+si],al
00001248  90                nop
00001249  0AAE0100          or ch,[bp+0x1]
0000124D  0004              add [si],al
0000124F  2D0109            sub ax,0x901
00001252  8900              mov [bx+si],ax
00001254  0000              add [bx+si],al
00001256  98                cbw
00001257  0AB50100          or dh,[di+0x1]
0000125B  0004              add [si],al
0000125D  2E0109            add [cs:bx+di],cx
00001260  8900              mov [bx+si],ax
00001262  0000              add [bx+si],al
00001264  A00ABC            mov al,[0xbc0a]
00001267  0100              add [bx+si],ax
00001269  0004              add [si],al
0000126B  2F                das
0000126C  0109              add [bx+di],cx
0000126E  8900              mov [bx+si],ax
00001270  0000              add [bx+si],al
00001272  A80A              test al,0xa
00001274  C3                ret
00001275  0100              add [bx+si],ax
00001277  0004              add [si],al
00001279  3001              xor [bx+di],al
0000127B  09890000          or [bx+di+0x0],cx
0000127F  00B00ACA          add [bx+si-0x35f6],dh
00001283  0100              add [bx+si],ax
00001285  0004              add [si],al
00001287  3201              xor al,[bx+di]
00001289  0A2D              or ch,[di]
0000128B  0000              add [bx+si],al
0000128D  00B80A2F          add [bx+si+0x2f0a],bh
00001291  0200              add al,[bx+si]
00001293  0004              add [si],al
00001295  3301              xor ax,[bx+di]
00001297  07                pop es
00001298  6300              arpl [bx+si],ax
0000129A  0000              add [bx+si],al
0000129C  C00A43            ror byte [bp+si],byte 0x43
0000129F  0100              add [bx+si],ax
000012A1  0004              add [si],al
000012A3  350108            xor ax,0x801
000012A6  9A020000C4        call 0xc400:0x2
000012AB  000B              add [bp+di],cl
000012AD  8B02              mov ax,[bp+si]
000012AF  0000              add [bx+si],al
000012B1  049A              add al,0x9a
000012B3  0E                push cs
000012B4  081F              or [bx],bl
000012B6  0100              add [bx+si],ax
000012B8  0018              add [bx+si],bl
000012BA  04A0              add al,0xa0
000012BC  087802            or [bx+si+0x2],bh
000012BF  0000              add [bx+si],al
000012C1  09A80100          or [bx+si+0x1],bp
000012C5  0004              add [si],al
000012C7  A11678            mov ax,[0x7816]
000012CA  0200              add al,[bx+si]
000012CC  0000              add [bx+si],al
000012CE  09F3              or bx,si
000012D0  0000              add [bx+si],al
000012D2  0004              add [si],al
000012D4  A2147E            mov [0x7e14],al
000012D7  0200              add al,[bx+si]
000012D9  0008              add [bx+si],cl
000012DB  09EE              or si,bp
000012DD  0000              add [bx+si],al
000012DF  0004              add [si],al
000012E1  A6                cmpsb
000012E2  07                pop es
000012E3  6300              arpl [bx+si],ax
000012E5  0000              add [bx+si],al
000012E7  1000              adc [bx+si],al
000012E9  06                push es
000012EA  084302            or [bp+di+0x2],al
000012ED  0000              add [bx+si],al
000012EF  06                push es
000012F0  089D0000          or [di+0x0],bl
000012F4  000C              add [si],cl
000012F6  91                xchg ax,cx
000012F7  0000              add [bx+si],al
000012F9  00940200          add [si+0x2],dl
000012FD  000D              add [di],cl
000012FF  3900              cmp [bx+si],ax
00001301  0000              add [bx+si],al
00001303  0000              add [bx+si],al
00001305  06                push es
00001306  083B              or [bp+di],bh
00001308  0200              add al,[bx+si]
0000130A  000C              add [si],cl
0000130C  91                xchg ax,cx
0000130D  0000              add [bx+si],al
0000130F  00AA0200          add [bp+si+0x2],ch
00001313  000D              add [di],cl
00001315  3900              cmp [bx+si],ax
00001317  0000              add [bx+si],al
00001319  1300              adc ax,[bx+si]
0000131B  0E                push cs
0000131C  E000              loopne 0x131e
0000131E  0000              add [bx+si],al
00001320  0F1001            movups xmm0,oword [bx+di]
00001323  0000              add [bx+si],al
00001325  043F              add al,0x3f
00001327  011D              add [di],bx
00001329  AA                stosb
0000132A  0200              add al,[bx+si]
0000132C  000F              add [bx],cl
0000132E  7B02              jpo 0x1332
00001330  0000              add [bx+si],al
00001332  0440              add al,0x40
00001334  011D              add [di],bx
00001336  AA                stosb
00001337  0200              add al,[bx+si]
00001339  000F              add [bx],cl
0000133B  D000              rol byte [bx+si],1
0000133D  0000              add [bx+si],al
0000133F  0441              add al,0x41
00001341  011D              add [di],bx
00001343  AA                stosb
00001344  0200              add al,[bx+si]
00001346  00060898          add [0x9808],al
0000134A  0000              add [bx+si],al
0000134C  0007              add [bx],al
0000134E  D6                salc
0000134F  0200              add al,[bx+si]
00001351  0010              add [bx+si],dl
00001353  2102              and [bp+si],ax
00001355  0000              add [bx+si],al
00001357  058719            add ax,0x1987
0000135A  7E02              jng 0x135e
0000135C  0000              add [bx+si],al
0000135E  107402            adc [si+0x2],dh
00001361  0000              add [bx+si],al
00001363  058819            add ax,0x1988
00001366  7E02              jng 0x136a
00001368  0000              add [bx+si],al
0000136A  10AE0000          adc [bp+0x0],ch
0000136E  0005              add [di],al
00001370  8919              mov [bx+di],bx
00001372  7E02              jng 0x1376
00001374  0000              add [bx+si],al
00001376  104F00            adc [bx+0x0],cl
00001379  0000              add [bx+si],al
0000137B  06                push es
0000137C  1A0C              sbb cl,[si]
0000137E  6300              arpl [bx+si],ax
00001380  0000              add [bx+si],al
00001382  0CDC              or al,0xdc
00001384  0200              add al,[bx+si]
00001386  001C              add [si],bl
00001388  0300              add ax,[bx+si]
0000138A  0011              add [bx+di],dl
0000138C  0007              add [bx],al
0000138E  1103              adc [bp+di],ax
00001390  0000              add [bx+si],al
00001392  106002            adc [bx+si+0x2],ah
00001395  0000              add [bx+si],al
00001397  06                push es
00001398  1B1A              sbb bx,[bp+si]
0000139A  1C03              sbb al,0x3
0000139C  0000              add [bx+si],al
0000139E  12A30100          adc ah,[bp+di+0x1]
000013A2  0001              add [bx+di],al
000013A4  0A05              or al,[di]
000013A6  6300              arpl [bx+si],ax
000013A8  0000              add [bx+si],al
000013AA  2D0600            sub ax,0x6
000013AD  0000              add [bx+si],al
000013AF  0000              add [bx+si],al
000013B1  0015              add [di],dl
000013B3  0000              add [bx+si],al
000013B5  0000              add [bx+si],al
000013B7  0000              add [bx+si],al
000013B9  0001              add [bx+di],al
000013BB  9C                pushf
000013BC  139A0100          adc bx,[bp+si+0x1]
000013C0  0001              add [bx+di],al
000013C2  03061506          add ax,[0x615]
000013C6  0000              add [bx+si],al
000013C8  0000              add [bx+si],al
000013CA  0000              add [bx+si],al
000013CC  1800              sbb [bx+si],al
000013CE  0000              add [bx+si],al
000013D0  0000              add [bx+si],al
000013D2  0000              add [bx+si],al
000013D4  019C0001          add [si+0x100],bx
000013D8  1101              adc [bx+di],ax
000013DA  250E13            and ax,0x130e
000013DD  0B03              or ax,[bp+di]
000013DF  0E                push cs
000013E0  1B0E1101          sbb cx,[0x111]
000013E4  1207              adc al,[bx]
000013E6  1017              adc [bx],dl
000013E8  0000              add [bx+si],al
000013EA  02160003          add dl,[0x300]
000013EE  0E                push cs
000013EF  3A0B              cmp cl,[bp+di]
000013F1  3B0B              cmp cx,[bp+di]
000013F3  390B              cmp [bp+di],cx
000013F5  49                dec cx
000013F6  1300              adc ax,[bx+si]
000013F8  0003              add [bp+di],al
000013FA  2400              and al,0x0
000013FC  0B0B              or cx,[bp+di]
000013FE  3E0B03            or ax,[ds:bp+di]
00001401  0E                push cs
00001402  0000              add [bx+si],al
00001404  0424              add al,0x24
00001406  000B              add [bp+di],cl
00001408  0B3E0B03          or di,[0x30b]
0000140C  0800              or [bx+si],al
0000140E  0005              add [di],al
00001410  0F000B            str [bp+di]
00001413  0B00              or ax,[bx+si]
00001415  00060F00          add [0xf],al
00001419  0B0B              or cx,[bp+di]
0000141B  49                dec cx
0000141C  1300              adc ax,[bx+si]
0000141E  0007              add [bx],al
00001420  26004913          add [es:bx+di+0x13],cl
00001424  0000              add [bx+si],al
00001426  0813              or [bp+di],dl
00001428  0103              add [bp+di],ax
0000142A  0E                push cs
0000142B  0B0B              or cx,[bp+di]
0000142D  3A0B              cmp cl,[bp+di]
0000142F  3B0B              cmp cx,[bp+di]
00001431  390B              cmp [bp+di],cx
00001433  0113              add [bp+di],dx
00001435  0000              add [bx+si],al
00001437  090D              or [di],cx
00001439  0003              add [bp+di],al
0000143B  0E                push cs
0000143C  3A0B              cmp cl,[bp+di]
0000143E  3B0B              cmp cx,[bp+di]
00001440  390B              cmp [bp+di],cx
00001442  49                dec cx
00001443  1338              adc di,[bx+si]
00001445  0B00              or ax,[bx+si]
00001447  000A              add [bp+si],cl
00001449  0D0003            or ax,0x300
0000144C  0E                push cs
0000144D  3A0B              cmp cl,[bp+di]
0000144F  3B05              cmp ax,[di]
00001451  390B              cmp [bp+di],cx
00001453  49                dec cx
00001454  1338              adc di,[bx+si]
00001456  0B00              or ax,[bx+si]
00001458  000B              add [bp+di],cl
0000145A  16                push ss
0000145B  0003              add [bp+di],al
0000145D  0E                push cs
0000145E  3A0B              cmp cl,[bp+di]
00001460  3B0B              cmp cx,[bp+di]
00001462  390B              cmp [bp+di],cx
00001464  0000              add [bx+si],al
00001466  0C01              or al,0x1
00001468  014913            add [bx+di+0x13],cx
0000146B  0113              add [bp+di],dx
0000146D  0000              add [bx+si],al
0000146F  0D2100            or ax,0x21
00001472  49                dec cx
00001473  132F              adc bp,[bx]
00001475  0B00              or ax,[bx+si]
00001477  000E1300          add [0x13],cl
0000147B  030E3C19          add cx,[0x193c]
0000147F  0000              add [bx+si],al
00001481  0F34              sysenter
00001483  0003              add [bp+di],al
00001485  0E                push cs
00001486  3A0B              cmp cl,[bp+di]
00001488  3B05              cmp ax,[di]
0000148A  390B              cmp [bp+di],cx
0000148C  49                dec cx
0000148D  133F              adc di,[bx]
0000148F  193C              sbb [si],di
00001491  1900              sbb [bx+si],ax
00001493  0010              add [bx+si],dl
00001495  3400              xor al,0x0
00001497  030E3A0B          add cx,[0xb3a]
0000149B  3B0B              cmp cx,[bp+di]
0000149D  390B              cmp [bp+di],cx
0000149F  49                dec cx
000014A0  133F              adc di,[bx]
000014A2  193C              sbb [si],di
000014A4  1900              sbb [bx+si],ax
000014A6  0011              add [bx+di],dl
000014A8  2100              and [bx+si],ax
000014AA  0000              add [bx+si],al
000014AC  122E003F          adc ch,[0x3f00]
000014B0  1903              sbb [bp+di],ax
000014B2  0E                push cs
000014B3  3A0B              cmp cl,[bp+di]
000014B5  3B0B              cmp cx,[bp+di]
000014B7  390B              cmp [bp+di],cx
000014B9  49                dec cx
000014BA  1311              adc dx,[bx+di]
000014BC  0112              add [bp+si],dx
000014BE  07                pop es
000014BF  40                inc ax
000014C0  18964219          sbb [bp+0x1942],dl
000014C4  0000              add [bx+si],al
000014C6  132E003F          adc bp,[0x3f00]
000014CA  1903              sbb [bp+di],ax
000014CC  0E                push cs
000014CD  3A0B              cmp cl,[bp+di]
000014CF  3B0B              cmp cx,[bp+di]
000014D1  390B              cmp [bp+di],cx
000014D3  1101              adc [bx+di],ax
000014D5  1207              adc al,[bx]
000014D7  40                inc ax
000014D8  18964219          sbb [bp+0x1942],dl
000014DC  0000              add [bx+si],al
000014DE  00CE              add dh,cl
000014E0  0000              add [bx+si],al
000014E2  0002              add [bp+si],al
000014E4  00A90000          add [bx+di+0x0],ch
000014E8  0001              add [bx+di],al
000014EA  01FB              add bx,di
000014EC  0E                push cs
000014ED  0D0001            or ax,0x100
000014F0  0101              add [bx+di],ax
000014F2  0100              add [bx+si],ax
000014F4  0000              add [bx+si],al
000014F6  0100              add [bx+si],ax
000014F8  0001              add [bx+di],al
000014FA  2F                das
000014FB  7573              jnz 0x1570
000014FD  722F              jc 0x152e
000014FF  6C                insb
00001500  69622F6763        imul sp,[bp+si+0x2f],word 0x6367
00001505  632F              arpl [bx],bp
00001507  7838              js 0x1541
00001509  365F              ss pop di
0000150B  36342D            ss xor al,0x2d
0000150E  7063              jo 0x1573
00001510  2D6C69            sub ax,0x696c
00001513  6E                outsb
00001514  7578              jnz 0x158e
00001516  2D676E            sub ax,0x6e67
00001519  752F              jnz 0x154a
0000151B  382E312E          cmp [0x2e31],ch
0000151F  302F              xor [bx],ch
00001521  696E636C75        imul bp,[bp+0x63],word 0x756c
00001526  6465002F          add [gs:bx],ch
0000152A  7573              jnz 0x159f
0000152C  722F              jc 0x155d
0000152E  696E636C75        imul bp,[bp+0x63],word 0x756c
00001533  64652F            gs das
00001536  626974            bound bp,[bx+di+0x74]
00001539  7300              jnc 0x153b
0000153B  2F                das
0000153C  7573              jnz 0x15b1
0000153E  722F              jc 0x156f
00001540  696E636C75        imul bp,[bp+0x63],word 0x756c
00001545  64650000          add [gs:bx+si],al
00001549  6D                insw
0000154A  61                popa
0000154B  696E2E6300        imul bp,[bp+0x2e],word 0x63
00001550  0000              add [bx+si],al
00001552  007374            add [bp+di+0x74],dh
00001555  646465662E680001  cs push dword 0x100
         -0000
0000155F  7479              jz 0x15da
00001561  7065              jo 0x15c8
00001563  732E              jnc 0x1593
00001565  680002            push word 0x200
00001568  0000              add [bx+si],al
0000156A  6C                insb
0000156B  6962696F2E        imul sp,[bp+si+0x69],word 0x2e6f
00001570  680002            push word 0x200
00001573  0000              add [bx+si],al
00001575  7374              jnc 0x15eb
00001577  64696F2E6800      imul bp,[fs:bx+0x2e],word 0x68
0000157D  0300              add ax,[bx+si]
0000157F  007379            add [bp+di+0x79],dh
00001582  735F              jnc 0x15e3
00001584  657272            gs jc 0x15f9
00001587  6C                insb
00001588  6973742E68        imul si,[bp+di+0x74],word 0x682e
0000158D  0002              add [bp+si],al
0000158F  0000              add [bx+si],al
00001591  0005              add [di],al
00001593  1000              adc [bx+si],al
00001595  0902              or [bp+si],ax
00001597  150600            adc ax,0x6
0000159A  0000              add [bx+si],al
0000159C  0000              add [bx+si],al
0000159E  0014              add [si],dl
000015A0  05014B            add ax,0x4b01
000015A3  0814              or [si],dl
000015A5  050B40            add ax,0x400b
000015A8  05014C            add ax,0x4c01
000015AB  E602              out 0x2,al
000015AD  0200              add al,[bx+si]
000015AF  0101              add [bx+di],ax
000015B1  5F                pop di
000015B2  49                dec cx
000015B3  4F                dec di
000015B4  5F                pop di
000015B5  627566            bound si,[di+0x66]
000015B8  5F                pop di
000015B9  656E              gs outsb
000015BB  64002F            add [fs:bx],ch
000015BE  686F6D            push word 0x6d6f
000015C1  652F              gs das
000015C3  6C                insb
000015C4  752D              jnz 0x15f3
000015C6  7969              jns 0x1631
000015C8  2D6873            sub ax,0x7368
000015CB  756E              jnz 0x163b
000015CD  2F                das
000015CE  57                push di
000015CF  6F                outsw
000015D0  726B              jc 0x163d
000015D2  53                push bx
000015D3  7061              jo 0x1636
000015D5  63652F            arpl [di+0x2f],sp
000015D8  47                inc di
000015D9  6974487562        imul si,[si+0x48],word 0x6275
000015DE  2F                das
000015DF  686F6D            push word 0x6d6f
000015E2  652F              gs das
000015E4  646F              fs outsw
000015E6  63732F            arpl [bp+di+0x2f],si
000015E9  43                inc bx
000015EA  2F                das
000015EB  7072              jo 0x165f
000015ED  61                popa
000015EE  637469            arpl [si+0x69],si
000015F1  636500            arpl [di+0x0],sp
000015F4  5F                pop di
000015F5  6F                outsw
000015F6  6C                insb
000015F7  645F              fs pop di
000015F9  6F                outsw
000015FA  66667365          o32 jnc 0x1663
000015FE  7400              jz 0x1600
00001600  7379              jnc 0x167b
00001602  735F              jnc 0x1663
00001604  6E                outsb
00001605  657272            gs jc 0x167a
00001608  005F49            add [bx+0x49],bl
0000160B  4F                dec di
0000160C  5F                pop di
0000160D  7361              jnc 0x1670
0000160F  7665              jna 0x1676
00001611  5F                pop di
00001612  656E              gs outsb
00001614  64007368          add [fs:bp+di+0x68],dh
00001618  6F                outsw
00001619  7274              jc 0x168f
0000161B  20696E            and [bx+di+0x6e],ch
0000161E  7400              jz 0x1620
00001620  7369              jnc 0x168b
00001622  7A65              jpe 0x1689
00001624  5F                pop di
00001625  7400              jz 0x1627
00001627  5F                pop di
00001628  49                dec cx
00001629  4F                dec di
0000162A  5F                pop di
0000162B  7772              ja 0x169f
0000162D  6974655F70        imul si,[si+0x65],word 0x705f
00001632  7472              jz 0x16a6
00001634  005F66            add [bx+0x66],bl
00001637  6C                insb
00001638  61                popa
00001639  677300            jnc 0x163c
0000163C  5F                pop di
0000163D  49                dec cx
0000163E  4F                dec di
0000163F  5F                pop di
00001640  627566            bound si,[di+0x66]
00001643  5F                pop di
00001644  626173            bound sp,[bx+di+0x73]
00001647  65005F6D          add [gs:bx+0x6d],bl
0000164B  61                popa
0000164C  726B              jc 0x16b9
0000164E  657273            gs jc 0x16c4
00001651  005F49            add [bx+0x49],bl
00001654  4F                dec di
00001655  5F                pop di
00001656  7265              jc 0x16bd
00001658  61                popa
00001659  645F              fs pop di
0000165B  656E              gs outsb
0000165D  64007374          add [fs:bp+di+0x74],dh
00001661  64657272          gs jc 0x16d7
00001665  005F6C            add [bx+0x6c],bl
00001668  6F                outsw
00001669  636B00            arpl [bp+di+0x0],bp
0000166C  6C                insb
0000166D  6F                outsw
0000166E  6E                outsb
0000166F  6720696E          and [ecx+0x6e],ch
00001673  7400              jz 0x1675
00001675  5F                pop di
00001676  637572            arpl [di+0x72],si
00001679  5F                pop di
0000167A  636F6C            arpl [bx+0x6c],bp
0000167D  756D              jnz 0x16ec
0000167F  6E                outsb
00001680  005F49            add [bx+0x49],bl
00001683  4F                dec di
00001684  5F                pop di
00001685  325F31            xor bl,[bx+0x31]
00001688  5F                pop di
00001689  7374              jnc 0x16ff
0000168B  64657272          gs jc 0x1701
0000168F  5F                pop di
00001690  005F49            add [bx+0x49],bl
00001693  4F                dec di
00001694  5F                pop di
00001695  46                inc si
00001696  49                dec cx
00001697  4C                dec sp
00001698  45                inc bp
00001699  5F                pop di
0000169A  706C              jo 0x1708
0000169C  7573              jnz 0x1711
0000169E  005F70            add [bx+0x70],bl
000016A1  6F                outsw
000016A2  7300              jnc 0x16a4
000016A4  5F                pop di
000016A5  7362              jnc 0x1709
000016A7  7566              jnz 0x170f
000016A9  005F49            add [bx+0x49],bl
000016AC  4F                dec di
000016AD  5F                pop di
000016AE  46                inc si
000016AF  49                dec cx
000016B0  4C                dec sp
000016B1  45                inc bp
000016B2  00756E            add [di+0x6e],dh
000016B5  7369              jnc 0x1720
000016B7  676E              a32 outsb
000016B9  6564206368        and [fs:bp+di+0x68],ah
000016BE  61                popa
000016BF  7200              jc 0x16c1
000016C1  5F                pop di
000016C2  49                dec cx
000016C3  4F                dec di
000016C4  5F                pop di
000016C5  325F31            xor bl,[bx+0x31]
000016C8  5F                pop di
000016C9  7374              jnc 0x173f
000016CB  64696E5F005F      imul bp,[fs:bp+0x5f],word 0x5f00
000016D1  49                dec cx
000016D2  4F                dec di
000016D3  5F                pop di
000016D4  6D                insw
000016D5  61                popa
000016D6  726B              jc 0x1743
000016D8  657200            gs jc 0x16db
000016DB  5F                pop di
000016DC  7368              jnc 0x1746
000016DE  6F                outsw
000016DF  7274              jc 0x1755
000016E1  627566            bound si,[di+0x66]
000016E4  005F49            add [bx+0x49],bl
000016E7  4F                dec di
000016E8  5F                pop di
000016E9  7772              ja 0x175d
000016EB  6974655F62        imul si,[si+0x65],word 0x625f
000016F0  61                popa
000016F1  7365              jnc 0x1758
000016F3  005F75            add [bx+0x75],bl
000016F6  6E                outsb
000016F7  7573              jnz 0x176c
000016F9  65643200          xor al,[fs:bx+si]
000016FD  5F                pop di
000016FE  49                dec cx
000016FF  4F                dec di
00001700  5F                pop di
00001701  7265              jc 0x1768
00001703  61                popa
00001704  645F              fs pop di
00001706  7074              jo 0x177c
00001708  7200              jc 0x170a
0000170A  7368              jnc 0x1774
0000170C  6F                outsw
0000170D  7274              jc 0x1783
0000170F  20756E            and [di+0x6e],dh
00001712  7369              jnc 0x177d
00001714  676E              a32 outsb
00001716  656420696E        and [fs:bx+di+0x6e],ch
0000171B  7400              jz 0x171d
0000171D  47                inc di
0000171E  4E                dec si
0000171F  55                push bp
00001720  204331            and [bp+di+0x31],al
00001723  37                aaa
00001724  2038              and [bx+si],bh
00001726  2E312E3020        xor [cs:0x2030],bp
0000172B  2D6D74            sub ax,0x746d
0000172E  756E              jnz 0x179e
00001730  653D6765          gs cmp ax,0x6567
00001734  6E                outsb
00001735  657269            gs jc 0x17a1
00001738  6320              arpl [bx+si],sp
0000173A  2D6D61            sub ax,0x616d
0000173D  7263              jc 0x17a2
0000173F  683D78            push word 0x783d
00001742  38362D36          cmp [0x362d],dh
00001746  3420              xor al,0x20
00001748  2D6700            sub ax,0x67
0000174B  66756E            o32 jnz 0x17bc
0000174E  637469            arpl [si+0x69],si
00001751  6F                outsw
00001752  6E                outsb
00001753  006D61            add [di+0x61],ch
00001756  696E005F6E        imul bp,[bp+0x0],word 0x6e5f
0000175B  657874            gs js 0x17d2
0000175E  005F5F            add [bx+0x5f],bl
00001761  7061              jo 0x17c4
00001763  643100            xor [fs:bx+si],ax
00001766  5F                pop di
00001767  5F                pop di
00001768  7061              jo 0x17cb
0000176A  643200            xor al,[fs:bx+si]
0000176D  5F                pop di
0000176E  5F                pop di
0000176F  7061              jo 0x17d2
00001771  643300            xor ax,[fs:bx+si]
00001774  5F                pop di
00001775  5F                pop di
00001776  7061              jo 0x17d9
00001778  643400            fs xor al,0x0
0000177B  5F                pop di
0000177C  5F                pop di
0000177D  7061              jo 0x17e0
0000177F  6435006D          fs xor ax,0x6d00
00001783  61                popa
00001784  696E2E6300        imul bp,[bp+0x2e],word 0x63
00001789  6C                insb
0000178A  6F                outsw
0000178B  6E                outsb
0000178C  6720756E          and [ebp+0x6e],dh
00001790  7369              jnc 0x17fb
00001792  676E              a32 outsb
00001794  656420696E        and [fs:bx+di+0x6e],ch
00001799  7400              jz 0x179b
0000179B  5F                pop di
0000179C  49                dec cx
0000179D  4F                dec di
0000179E  5F                pop di
0000179F  7772              ja 0x1813
000017A1  6974655F65        imul si,[si+0x65],word 0x655f
000017A6  6E                outsb
000017A7  64005F5F          add [fs:bx+0x5f],bl
000017AB  6F                outsw
000017AC  666636345F        ss o32 xor al,0x5f
000017B1  7400              jz 0x17b3
000017B3  5F                pop di
000017B4  5F                pop di
000017B5  6F                outsw
000017B6  66665F            pop edi
000017B9  7400              jz 0x17bb
000017BB  5F                pop di
000017BC  636861            arpl [bx+si+0x61],bp
000017BF  696E005F49        imul bp,[bp+0x0],word 0x495f
000017C4  4F                dec di
000017C5  5F                pop di
000017C6  626163            bound sp,[bx+di+0x63]
000017C9  6B75705F          imul si,[di+0x70],byte +0x5f
000017CD  626173            bound sp,[bx+di+0x73]
000017D0  65007374          add [gs:bp+di+0x74],dh
000017D4  64696E005F66      imul bp,[fs:bp+0x0],word 0x665f
000017DA  6C                insb
000017DB  61                popa
000017DC  677332            jnc 0x1811
000017DF  005F6D            add [bx+0x6d],bl
000017E2  6F                outsw
000017E3  6465005F49        add [gs:bx+0x49],bl
000017E8  4F                dec di
000017E9  5F                pop di
000017EA  7265              jc 0x1851
000017EC  61                popa
000017ED  645F              fs pop di
000017EF  626173            bound sp,[bx+di+0x73]
000017F2  65005F76          add [gs:bx+0x76],bl
000017F6  7461              jz 0x1859
000017F8  626C65            bound bp,[si+0x65]
000017FB  5F                pop di
000017FC  6F                outsw
000017FD  66667365          o32 jnc 0x1866
00001801  7400              jz 0x1803
00001803  5F                pop di
00001804  49                dec cx
00001805  4F                dec di
00001806  5F                pop di
00001807  7361              jnc 0x186a
00001809  7665              jna 0x1870
0000180B  5F                pop di
0000180C  626173            bound sp,[bx+di+0x73]
0000180F  65007379          add [gs:bp+di+0x79],dh
00001813  735F              jnc 0x1874
00001815  657272            gs jc 0x188a
00001818  6C                insb
00001819  697374005F        imul si,[bp+di+0x74],word 0x5f00
0000181E  66696C656E6F0073  imul ebp,[si+0x65],dword 0x73006f6e
00001826  7464              jz 0x188c
00001828  6F                outsw
00001829  7574              jnz 0x189f
0000182B  005F49            add [bx+0x49],bl
0000182E  4F                dec di
0000182F  5F                pop di
00001830  325F31            xor bl,[bx+0x31]
00001833  5F                pop di
00001834  7374              jnc 0x18aa
00001836  646F              fs outsw
00001838  7574              jnz 0x18ae
0000183A  5F                pop di
0000183B  005F49            add [bx+0x49],bl
0000183E  4F                dec di
0000183F  5F                pop di
00001840  6C                insb
00001841  6F                outsw
00001842  636B5F            arpl [bp+di+0x5f],bp
00001845  7400              jz 0x1847
00001847  0000              add [bx+si],al
00001849  0000              add [bx+si],al
0000184B  0000              add [bx+si],al
0000184D  0000              add [bx+si],al
0000184F  0000              add [bx+si],al
00001851  0000              add [bx+si],al
00001853  0000              add [bx+si],al
00001855  0000              add [bx+si],al
00001857  0000              add [bx+si],al
00001859  0000              add [bx+si],al
0000185B  0000              add [bx+si],al
0000185D  0000              add [bx+si],al
0000185F  0000              add [bx+si],al
00001861  0000              add [bx+si],al
00001863  0003              add [bp+di],al
00001865  0001              add [bx+di],al
00001867  0038              add [bx+si],bh
00001869  0200              add al,[bx+si]
0000186B  0000              add [bx+si],al
0000186D  0000              add [bx+si],al
0000186F  0000              add [bx+si],al
00001871  0000              add [bx+si],al
00001873  0000              add [bx+si],al
00001875  0000              add [bx+si],al
00001877  0000              add [bx+si],al
00001879  0000              add [bx+si],al
0000187B  0003              add [bp+di],al
0000187D  0002              add [bp+si],al
0000187F  005402            add [si+0x2],dl
00001882  0000              add [bx+si],al
00001884  0000              add [bx+si],al
00001886  0000              add [bx+si],al
00001888  0000              add [bx+si],al
0000188A  0000              add [bx+si],al
0000188C  0000              add [bx+si],al
0000188E  0000              add [bx+si],al
00001890  0000              add [bx+si],al
00001892  0000              add [bx+si],al
00001894  0300              add ax,[bx+si]
00001896  0300              add ax,[bx+si]
00001898  7402              jz 0x189c
0000189A  0000              add [bx+si],al
0000189C  0000              add [bx+si],al
0000189E  0000              add [bx+si],al
000018A0  0000              add [bx+si],al
000018A2  0000              add [bx+si],al
000018A4  0000              add [bx+si],al
000018A6  0000              add [bx+si],al
000018A8  0000              add [bx+si],al
000018AA  0000              add [bx+si],al
000018AC  0300              add ax,[bx+si]
000018AE  0400              add al,0x0
000018B0  98                cbw
000018B1  0200              add al,[bx+si]
000018B3  0000              add [bx+si],al
000018B5  0000              add [bx+si],al
000018B7  0000              add [bx+si],al
000018B9  0000              add [bx+si],al
000018BB  0000              add [bx+si],al
000018BD  0000              add [bx+si],al
000018BF  0000              add [bx+si],al
000018C1  0000              add [bx+si],al
000018C3  0003              add [bp+di],al
000018C5  0005              add [di],al
000018C7  00B80200          add [bx+si+0x2],bh
000018CB  0000              add [bx+si],al
000018CD  0000              add [bx+si],al
000018CF  0000              add [bx+si],al
000018D1  0000              add [bx+si],al
000018D3  0000              add [bx+si],al
000018D5  0000              add [bx+si],al
000018D7  0000              add [bx+si],al
000018D9  0000              add [bx+si],al
000018DB  0003              add [bp+di],al
000018DD  00060060          add [0x6000],al
000018E1  0300              add ax,[bx+si]
000018E3  0000              add [bx+si],al
000018E5  0000              add [bx+si],al
000018E7  0000              add [bx+si],al
000018E9  0000              add [bx+si],al
000018EB  0000              add [bx+si],al
000018ED  0000              add [bx+si],al
000018EF  0000              add [bx+si],al
000018F1  0000              add [bx+si],al
000018F3  0003              add [bp+di],al
000018F5  0007              add [bx],al
000018F7  00E4              add ah,ah
000018F9  0300              add ax,[bx+si]
000018FB  0000              add [bx+si],al
000018FD  0000              add [bx+si],al
000018FF  0000              add [bx+si],al
00001901  0000              add [bx+si],al
00001903  0000              add [bx+si],al
00001905  0000              add [bx+si],al
00001907  0000              add [bx+si],al
00001909  0000              add [bx+si],al
0000190B  0003              add [bp+di],al
0000190D  0008              add [bx+si],cl
0000190F  00F8              add al,bh
00001911  0300              add ax,[bx+si]
00001913  0000              add [bx+si],al
00001915  0000              add [bx+si],al
00001917  0000              add [bx+si],al
00001919  0000              add [bx+si],al
0000191B  0000              add [bx+si],al
0000191D  0000              add [bx+si],al
0000191F  0000              add [bx+si],al
00001921  0000              add [bx+si],al
00001923  0003              add [bp+di],al
00001925  0009              add [bx+di],cl
00001927  0018              add [bx+si],bl
00001929  0400              add al,0x0
0000192B  0000              add [bx+si],al
0000192D  0000              add [bx+si],al
0000192F  0000              add [bx+si],al
00001931  0000              add [bx+si],al
00001933  0000              add [bx+si],al
00001935  0000              add [bx+si],al
00001937  0000              add [bx+si],al
00001939  0000              add [bx+si],al
0000193B  0003              add [bp+di],al
0000193D  000A              add [bp+si],cl
0000193F  00D8              add al,bl
00001941  0400              add al,0x0
00001943  0000              add [bx+si],al
00001945  0000              add [bx+si],al
00001947  0000              add [bx+si],al
00001949  0000              add [bx+si],al
0000194B  0000              add [bx+si],al
0000194D  0000              add [bx+si],al
0000194F  0000              add [bx+si],al
00001951  0000              add [bx+si],al
00001953  0003              add [bp+di],al
00001955  000B              add [bp+di],cl
00001957  00F0              add al,dh
00001959  0400              add al,0x0
0000195B  0000              add [bx+si],al
0000195D  0000              add [bx+si],al
0000195F  0000              add [bx+si],al
00001961  0000              add [bx+si],al
00001963  0000              add [bx+si],al
00001965  0000              add [bx+si],al
00001967  0000              add [bx+si],al
00001969  0000              add [bx+si],al
0000196B  0003              add [bp+di],al
0000196D  000C              add [si],cl
0000196F  0010              add [bx+si],dl
00001971  050000            add ax,0x0
00001974  0000              add [bx+si],al
00001976  0000              add [bx+si],al
00001978  0000              add [bx+si],al
0000197A  0000              add [bx+si],al
0000197C  0000              add [bx+si],al
0000197E  0000              add [bx+si],al
00001980  0000              add [bx+si],al
00001982  0000              add [bx+si],al
00001984  0300              add ax,[bx+si]
00001986  0D0030            or ax,0x3000
00001989  050000            add ax,0x0
0000198C  0000              add [bx+si],al
0000198E  0000              add [bx+si],al
00001990  0000              add [bx+si],al
00001992  0000              add [bx+si],al
00001994  0000              add [bx+si],al
00001996  0000              add [bx+si],al
00001998  0000              add [bx+si],al
0000199A  0000              add [bx+si],al
0000199C  0300              add ax,[bx+si]
0000199E  0E                push cs
0000199F  00C4              add ah,al
000019A1  06                push es
000019A2  0000              add [bx+si],al
000019A4  0000              add [bx+si],al
000019A6  0000              add [bx+si],al
000019A8  0000              add [bx+si],al
000019AA  0000              add [bx+si],al
000019AC  0000              add [bx+si],al
000019AE  0000              add [bx+si],al
000019B0  0000              add [bx+si],al
000019B2  0000              add [bx+si],al
000019B4  0300              add ax,[bx+si]
000019B6  0F00D0            lldt ax
000019B9  06                push es
000019BA  0000              add [bx+si],al
000019BC  0000              add [bx+si],al
000019BE  0000              add [bx+si],al
000019C0  0000              add [bx+si],al
000019C2  0000              add [bx+si],al
000019C4  0000              add [bx+si],al
000019C6  0000              add [bx+si],al
000019C8  0000              add [bx+si],al
000019CA  0000              add [bx+si],al
000019CC  0300              add ax,[bx+si]
000019CE  1000              adc [bx+si],al
000019D0  D8060000          fadd dword [0x0]
000019D4  0000              add [bx+si],al
000019D6  0000              add [bx+si],al
000019D8  0000              add [bx+si],al
000019DA  0000              add [bx+si],al
000019DC  0000              add [bx+si],al
000019DE  0000              add [bx+si],al
000019E0  0000              add [bx+si],al
000019E2  0000              add [bx+si],al
000019E4  0300              add ax,[bx+si]
000019E6  1100              adc [bx+si],ax
000019E8  1807              sbb [bx],al
000019EA  0000              add [bx+si],al
000019EC  0000              add [bx+si],al
000019EE  0000              add [bx+si],al
000019F0  0000              add [bx+si],al
000019F2  0000              add [bx+si],al
000019F4  0000              add [bx+si],al
000019F6  0000              add [bx+si],al
000019F8  0000              add [bx+si],al
000019FA  0000              add [bx+si],al
000019FC  0300              add ax,[bx+si]
000019FE  1200              adc al,[bx+si]
00001A00  E80D20            call 0x3a10
00001A03  0000              add [bx+si],al
00001A05  0000              add [bx+si],al
00001A07  0000              add [bx+si],al
00001A09  0000              add [bx+si],al
00001A0B  0000              add [bx+si],al
00001A0D  0000              add [bx+si],al
00001A0F  0000              add [bx+si],al
00001A11  0000              add [bx+si],al
00001A13  0003              add [bp+di],al
00001A15  0013              add [bp+di],dl
00001A17  00F0              add al,dh
00001A19  0D2000            or ax,0x20
00001A1C  0000              add [bx+si],al
00001A1E  0000              add [bx+si],al
00001A20  0000              add [bx+si],al
00001A22  0000              add [bx+si],al
00001A24  0000              add [bx+si],al
00001A26  0000              add [bx+si],al
00001A28  0000              add [bx+si],al
00001A2A  0000              add [bx+si],al
00001A2C  0300              add ax,[bx+si]
00001A2E  1400              adc al,0x0
00001A30  F8                clc
00001A31  0D2000            or ax,0x20
00001A34  0000              add [bx+si],al
00001A36  0000              add [bx+si],al
00001A38  0000              add [bx+si],al
00001A3A  0000              add [bx+si],al
00001A3C  0000              add [bx+si],al
00001A3E  0000              add [bx+si],al
00001A40  0000              add [bx+si],al
00001A42  0000              add [bx+si],al
00001A44  0300              add ax,[bx+si]
00001A46  1500D8            adc ax,0xd800
00001A49  0F                db 0x0f
00001A4A  2000              and [bx+si],al
00001A4C  0000              add [bx+si],al
00001A4E  0000              add [bx+si],al
00001A50  0000              add [bx+si],al
00001A52  0000              add [bx+si],al
00001A54  0000              add [bx+si],al
00001A56  0000              add [bx+si],al
00001A58  0000              add [bx+si],al
00001A5A  0000              add [bx+si],al
00001A5C  0300              add ax,[bx+si]
00001A5E  16                push ss
00001A5F  0000              add [bx+si],al
00001A61  1020              adc [bx+si],ah
00001A63  0000              add [bx+si],al
00001A65  0000              add [bx+si],al
00001A67  0000              add [bx+si],al
00001A69  0000              add [bx+si],al
00001A6B  0000              add [bx+si],al
00001A6D  0000              add [bx+si],al
00001A6F  0000              add [bx+si],al
00001A71  0000              add [bx+si],al
00001A73  0003              add [bp+di],al
00001A75  0017              add [bx],dl
00001A77  0020              add [bx+si],ah
00001A79  1020              adc [bx+si],ah
00001A7B  0000              add [bx+si],al
00001A7D  0000              add [bx+si],al
00001A7F  0000              add [bx+si],al
00001A81  0000              add [bx+si],al
00001A83  0000              add [bx+si],al
00001A85  0000              add [bx+si],al
00001A87  0000              add [bx+si],al
00001A89  0000              add [bx+si],al
00001A8B  0003              add [bp+di],al
00001A8D  0018              add [bx+si],bl
00001A8F  0030              add [bx+si],dh
00001A91  1020              adc [bx+si],ah
00001A93  0000              add [bx+si],al
00001A95  0000              add [bx+si],al
00001A97  0000              add [bx+si],al
00001A99  0000              add [bx+si],al
00001A9B  0000              add [bx+si],al
00001A9D  0000              add [bx+si],al
00001A9F  0000              add [bx+si],al
00001AA1  0000              add [bx+si],al
00001AA3  0003              add [bp+di],al
00001AA5  0019              add [bx+di],bl
00001AA7  0000              add [bx+si],al
00001AA9  0000              add [bx+si],al
00001AAB  0000              add [bx+si],al
00001AAD  0000              add [bx+si],al
00001AAF  0000              add [bx+si],al
00001AB1  0000              add [bx+si],al
00001AB3  0000              add [bx+si],al
00001AB5  0000              add [bx+si],al
00001AB7  0000              add [bx+si],al
00001AB9  0000              add [bx+si],al
00001ABB  0003              add [bp+di],al
00001ABD  001A              add [bp+si],bl
00001ABF  0000              add [bx+si],al
00001AC1  0000              add [bx+si],al
00001AC3  0000              add [bx+si],al
00001AC5  0000              add [bx+si],al
00001AC7  0000              add [bx+si],al
00001AC9  0000              add [bx+si],al
00001ACB  0000              add [bx+si],al
00001ACD  0000              add [bx+si],al
00001ACF  0000              add [bx+si],al
00001AD1  0000              add [bx+si],al
00001AD3  0003              add [bp+di],al
00001AD5  001B              add [bp+di],bl
00001AD7  0000              add [bx+si],al
00001AD9  0000              add [bx+si],al
00001ADB  0000              add [bx+si],al
00001ADD  0000              add [bx+si],al
00001ADF  0000              add [bx+si],al
00001AE1  0000              add [bx+si],al
00001AE3  0000              add [bx+si],al
00001AE5  0000              add [bx+si],al
00001AE7  0000              add [bx+si],al
00001AE9  0000              add [bx+si],al
00001AEB  0003              add [bp+di],al
00001AED  001C              add [si],bl
00001AEF  0000              add [bx+si],al
00001AF1  0000              add [bx+si],al
00001AF3  0000              add [bx+si],al
00001AF5  0000              add [bx+si],al
00001AF7  0000              add [bx+si],al
00001AF9  0000              add [bx+si],al
00001AFB  0000              add [bx+si],al
00001AFD  0000              add [bx+si],al
00001AFF  0000              add [bx+si],al
00001B01  0000              add [bx+si],al
00001B03  0003              add [bp+di],al
00001B05  001D              add [di],bl
00001B07  0000              add [bx+si],al
00001B09  0000              add [bx+si],al
00001B0B  0000              add [bx+si],al
00001B0D  0000              add [bx+si],al
00001B0F  0000              add [bx+si],al
00001B11  0000              add [bx+si],al
00001B13  0000              add [bx+si],al
00001B15  0000              add [bx+si],al
00001B17  0000              add [bx+si],al
00001B19  0000              add [bx+si],al
00001B1B  0003              add [bp+di],al
00001B1D  001E0000          add [0x0],bl
00001B21  0000              add [bx+si],al
00001B23  0000              add [bx+si],al
00001B25  0000              add [bx+si],al
00001B27  0000              add [bx+si],al
00001B29  0000              add [bx+si],al
00001B2B  0000              add [bx+si],al
00001B2D  0000              add [bx+si],al
00001B2F  0001              add [bx+di],al
00001B31  0000              add [bx+si],al
00001B33  0004              add [si],al
00001B35  00F1              add cl,dh
00001B37  FF00              inc word [bx+si]
00001B39  0000              add [bx+si],al
00001B3B  0000              add [bx+si],al
00001B3D  0000              add [bx+si],al
00001B3F  0000              add [bx+si],al
00001B41  0000              add [bx+si],al
00001B43  0000              add [bx+si],al
00001B45  0000              add [bx+si],al
00001B47  0008              add [bx+si],cl
00001B49  0000              add [bx+si],al
00001B4B  0004              add [si],al
00001B4D  00F1              add cl,dh
00001B4F  FF00              inc word [bx+si]
00001B51  0000              add [bx+si],al
00001B53  0000              add [bx+si],al
00001B55  0000              add [bx+si],al
00001B57  0000              add [bx+si],al
00001B59  0000              add [bx+si],al
00001B5B  0000              add [bx+si],al
00001B5D  0000              add [bx+si],al
00001B5F  0013              add [bp+di],dl
00001B61  0000              add [bx+si],al
00001B63  0002              add [bp+si],al
00001B65  000D              add [di],cl
00001B67  006005            add [bx+si+0x5],ah
00001B6A  0000              add [bx+si],al
00001B6C  0000              add [bx+si],al
00001B6E  0000              add [bx+si],al
00001B70  0000              add [bx+si],al
00001B72  0000              add [bx+si],al
00001B74  0000              add [bx+si],al
00001B76  0000              add [bx+si],al
00001B78  150000            adc ax,0x0
00001B7B  0002              add [bp+si],al
00001B7D  000D              add [di],cl
00001B7F  00900500          add [bx+si+0x5],dl
00001B83  0000              add [bx+si],al
00001B85  0000              add [bx+si],al
00001B87  0000              add [bx+si],al
00001B89  0000              add [bx+si],al
00001B8B  0000              add [bx+si],al
00001B8D  0000              add [bx+si],al
00001B8F  0028              add [bx+si],ch
00001B91  0000              add [bx+si],al
00001B93  0002              add [bp+si],al
00001B95  000D              add [di],cl
00001B97  00D0              add al,dl
00001B99  050000            add ax,0x0
00001B9C  0000              add [bx+si],al
00001B9E  0000              add [bx+si],al
00001BA0  0000              add [bx+si],al
00001BA2  0000              add [bx+si],al
00001BA4  0000              add [bx+si],al
00001BA6  0000              add [bx+si],al
00001BA8  3E0000            add [ds:bx+si],al
00001BAB  0001              add [bx+di],al
00001BAD  0018              add [bx+si],bl
00001BAF  0030              add [bx+si],dh
00001BB1  1020              adc [bx+si],ah
00001BB3  0000              add [bx+si],al
00001BB5  0000              add [bx+si],al
00001BB7  0001              add [bx+di],al
00001BB9  0000              add [bx+si],al
00001BBB  0000              add [bx+si],al
00001BBD  0000              add [bx+si],al
00001BBF  004D00            add [di+0x0],cl
00001BC2  0000              add [bx+si],al
00001BC4  0100              add [bx+si],ax
00001BC6  1300              adc ax,[bx+si]
00001BC8  F00D2000          lock or ax,0x20
00001BCC  0000              add [bx+si],al
00001BCE  0000              add [bx+si],al
00001BD0  0000              add [bx+si],al
00001BD2  0000              add [bx+si],al
00001BD4  0000              add [bx+si],al
00001BD6  0000              add [bx+si],al
00001BD8  7400              jz 0x1bda
00001BDA  0000              add [bx+si],al
00001BDC  0200              add al,[bx+si]
00001BDE  0D0010            or ax,0x1000
00001BE1  06                push es
00001BE2  0000              add [bx+si],al
00001BE4  0000              add [bx+si],al
00001BE6  0000              add [bx+si],al
00001BE8  0000              add [bx+si],al
00001BEA  0000              add [bx+si],al
00001BEC  0000              add [bx+si],al
00001BEE  0000              add [bx+si],al
00001BF0  800000            add byte [bx+si],0x0
00001BF3  0001              add [bx+di],al
00001BF5  0012              add [bp+si],dl
00001BF7  00E8              add al,ch
00001BF9  0D2000            or ax,0x20
00001BFC  0000              add [bx+si],al
00001BFE  0000              add [bx+si],al
00001C00  0000              add [bx+si],al
00001C02  0000              add [bx+si],al
00001C04  0000              add [bx+si],al
00001C06  0000              add [bx+si],al
00001C08  9F                lahf
00001C09  0000              add [bx+si],al
00001C0B  0004              add [si],al
00001C0D  00F1              add cl,dh
00001C0F  FF00              inc word [bx+si]
00001C11  0000              add [bx+si],al
00001C13  0000              add [bx+si],al
00001C15  0000              add [bx+si],al
00001C17  0000              add [bx+si],al
00001C19  0000              add [bx+si],al
00001C1B  0000              add [bx+si],al
00001C1D  0000              add [bx+si],al
00001C1F  0008              add [bx+si],cl
00001C21  0000              add [bx+si],al
00001C23  0004              add [si],al
00001C25  00F1              add cl,dh
00001C27  FF00              inc word [bx+si]
00001C29  0000              add [bx+si],al
00001C2B  0000              add [bx+si],al
00001C2D  0000              add [bx+si],al
00001C2F  0000              add [bx+si],al
00001C31  0000              add [bx+si],al
00001C33  0000              add [bx+si],al
00001C35  0000              add [bx+si],al
00001C37  00A60000          add [bp+0x0],ah
00001C3B  0001              add [bx+di],al
00001C3D  0011              add [bx+di],dl
00001C3F  0024              add [si],ah
00001C41  0800              or [bx+si],al
00001C43  0000              add [bx+si],al
00001C45  0000              add [bx+si],al
00001C47  0000              add [bx+si],al
00001C49  0000              add [bx+si],al
00001C4B  0000              add [bx+si],al
00001C4D  0000              add [bx+si],al
00001C4F  0000              add [bx+si],al
00001C51  0000              add [bx+si],al
00001C53  0004              add [si],al
00001C55  00F1              add cl,dh
00001C57  FF00              inc word [bx+si]
00001C59  0000              add [bx+si],al
00001C5B  0000              add [bx+si],al
00001C5D  0000              add [bx+si],al
00001C5F  0000              add [bx+si],al
00001C61  0000              add [bx+si],al
00001C63  0000              add [bx+si],al
00001C65  0000              add [bx+si],al
00001C67  00B40000          add [si+0x0],dh
00001C6B  0000              add [bx+si],al
00001C6D  0012              add [bp+si],dl
00001C6F  00F0              add al,dh
00001C71  0D2000            or ax,0x20
00001C74  0000              add [bx+si],al
00001C76  0000              add [bx+si],al
00001C78  0000              add [bx+si],al
00001C7A  0000              add [bx+si],al
00001C7C  0000              add [bx+si],al
00001C7E  0000              add [bx+si],al
00001C80  C500              lds ax,[bx+si]
00001C82  0000              add [bx+si],al
00001C84  0100              add [bx+si],ax
00001C86  1400              adc al,0x0
00001C88  F8                clc
00001C89  0D2000            or ax,0x20
00001C8C  0000              add [bx+si],al
00001C8E  0000              add [bx+si],al
00001C90  0000              add [bx+si],al
00001C92  0000              add [bx+si],al
00001C94  0000              add [bx+si],al
00001C96  0000              add [bx+si],al
00001C98  CE                into
00001C99  0000              add [bx+si],al
00001C9B  0000              add [bx+si],al
00001C9D  0012              add [bp+si],dl
00001C9F  00E8              add al,ch
00001CA1  0D2000            or ax,0x20
00001CA4  0000              add [bx+si],al
00001CA6  0000              add [bx+si],al
00001CA8  0000              add [bx+si],al
00001CAA  0000              add [bx+si],al
00001CAC  0000              add [bx+si],al
00001CAE  0000              add [bx+si],al
00001CB0  E100              loope 0x1cb2
00001CB2  0000              add [bx+si],al
00001CB4  0000              add [bx+si],al
00001CB6  1000              adc [bx+si],al
00001CB8  D8060000          fadd dword [0x0]
00001CBC  0000              add [bx+si],al
00001CBE  0000              add [bx+si],al
00001CC0  0000              add [bx+si],al
00001CC2  0000              add [bx+si],al
00001CC4  0000              add [bx+si],al
00001CC6  0000              add [bx+si],al
00001CC8  F4                hlt
00001CC9  0000              add [bx+si],al
00001CCB  0001              add [bx+di],al
00001CCD  00160000          add [0x0],dl
00001CD1  1020              adc [bx+si],ah
00001CD3  0000              add [bx+si],al
00001CD5  0000              add [bx+si],al
00001CD7  0000              add [bx+si],al
00001CD9  0000              add [bx+si],al
00001CDB  0000              add [bx+si],al
00001CDD  0000              add [bx+si],al
00001CDF  000A              add [bp+si],cl
00001CE1  0100              add [bx+si],ax
00001CE3  0012              add [bp+si],dl
00001CE5  000D              add [di],cl
00001CE7  00C0              add al,al
00001CE9  06                push es
00001CEA  0000              add [bx+si],al
00001CEC  0000              add [bx+si],al
00001CEE  0000              add [bx+si],al
00001CF0  0100              add [bx+si],ax
00001CF2  0000              add [bx+si],al
00001CF4  0000              add [bx+si],al
00001CF6  0000              add [bx+si],al
00001CF8  1A01              sbb al,[bx+di]
00001CFA  0000              add [bx+si],al
00001CFC  2000              and [bx+si],al
00001CFE  0000              add [bx+si],al
00001D00  0000              add [bx+si],al
00001D02  0000              add [bx+si],al
00001D04  0000              add [bx+si],al
00001D06  0000              add [bx+si],al
00001D08  0000              add [bx+si],al
00001D0A  0000              add [bx+si],al
00001D0C  0000              add [bx+si],al
00001D0E  0000              add [bx+si],al
00001D10  7201              jc 0x1d13
00001D12  0000              add [bx+si],al
00001D14  2000              and [bx+si],al
00001D16  17                pop ss
00001D17  0020              add [bx+si],ah
00001D19  1020              adc [bx+si],ah
00001D1B  0000              add [bx+si],al
00001D1D  0000              add [bx+si],al
00001D1F  0000              add [bx+si],al
00001D21  0000              add [bx+si],al
00001D23  0000              add [bx+si],al
00001D25  0000              add [bx+si],al
00001D27  00360100          add [0x1],dh
00001D2B  0010              add [bx+si],dl
00001D2D  0017              add [bx],dl
00001D2F  0030              add [bx+si],dh
00001D31  1020              adc [bx+si],ah
00001D33  0000              add [bx+si],al
00001D35  0000              add [bx+si],al
00001D37  0000              add [bx+si],al
00001D39  0000              add [bx+si],al
00001D3B  0000              add [bx+si],al
00001D3D  0000              add [bx+si],al
00001D3F  0014              add [si],dl
00001D41  0100              add [bx+si],ax
00001D43  0012              add [bp+si],dl
00001D45  000E00C4          add [0xc400],cl
00001D49  06                push es
00001D4A  0000              add [bx+si],al
00001D4C  0000              add [bx+si],al
00001D4E  0000              add [bx+si],al
00001D50  0000              add [bx+si],al
00001D52  0000              add [bx+si],al
00001D54  0000              add [bx+si],al
00001D56  0000              add [bx+si],al
00001D58  3D0100            cmp ax,0x1
00001D5B  0012              add [bp+si],dl
00001D5D  0000              add [bx+si],al
00001D5F  0000              add [bx+si],al
00001D61  0000              add [bx+si],al
00001D63  0000              add [bx+si],al
00001D65  0000              add [bx+si],al
00001D67  0000              add [bx+si],al
00001D69  0000              add [bx+si],al
00001D6B  0000              add [bx+si],al
00001D6D  0000              add [bx+si],al
00001D6F  005101            add [bx+di+0x1],dl
00001D72  0000              add [bx+si],al
00001D74  1200              adc al,[bx+si]
00001D76  0000              add [bx+si],al
00001D78  0000              add [bx+si],al
00001D7A  0000              add [bx+si],al
00001D7C  0000              add [bx+si],al
00001D7E  0000              add [bx+si],al
00001D80  0000              add [bx+si],al
00001D82  0000              add [bx+si],al
00001D84  0000              add [bx+si],al
00001D86  0000              add [bx+si],al
00001D88  7001              jo 0x1d8b
00001D8A  0000              add [bx+si],al
00001D8C  1000              adc [bx+si],al
00001D8E  17                pop ss
00001D8F  0020              add [bx+si],ah
00001D91  1020              adc [bx+si],ah
00001D93  0000              add [bx+si],al
00001D95  0000              add [bx+si],al
00001D97  0000              add [bx+si],al
00001D99  0000              add [bx+si],al
00001D9B  0000              add [bx+si],al
00001D9D  0000              add [bx+si],al
00001D9F  007D01            add [di+0x1],bh
00001DA2  0000              add [bx+si],al
00001DA4  2000              and [bx+si],al
00001DA6  0000              add [bx+si],al
00001DA8  0000              add [bx+si],al
00001DAA  0000              add [bx+si],al
00001DAC  0000              add [bx+si],al
00001DAE  0000              add [bx+si],al
00001DB0  0000              add [bx+si],al
00001DB2  0000              add [bx+si],al
00001DB4  0000              add [bx+si],al
00001DB6  0000              add [bx+si],al
00001DB8  8C01              mov [bx+di],es
00001DBA  0000              add [bx+si],al
00001DBC  1102              adc [bp+si],ax
00001DBE  17                pop ss
00001DBF  0028              add [bx+si],ch
00001DC1  1020              adc [bx+si],ah
00001DC3  0000              add [bx+si],al
00001DC5  0000              add [bx+si],al
00001DC7  0000              add [bx+si],al
00001DC9  0000              add [bx+si],al
00001DCB  0000              add [bx+si],al
00001DCD  0000              add [bx+si],al
00001DCF  00990100          add [bx+di+0x1],bl
00001DD3  0011              add [bx+di],dl
00001DD5  000F              add [bx],cl
00001DD7  00D0              add al,dl
00001DD9  06                push es
00001DDA  0000              add [bx+si],al
00001DDC  0000              add [bx+si],al
00001DDE  0000              add [bx+si],al
00001DE0  0400              add al,0x0
00001DE2  0000              add [bx+si],al
00001DE4  0000              add [bx+si],al
00001DE6  0000              add [bx+si],al
00001DE8  A801              test al,0x1
00001DEA  0000              add [bx+si],al
00001DEC  1200              adc al,[bx+si]
00001DEE  0D0050            or ax,0x5000
00001DF1  06                push es
00001DF2  0000              add [bx+si],al
00001DF4  0000              add [bx+si],al
00001DF6  0000              add [bx+si],al
00001DF8  650000            add [gs:bx+si],al
00001DFB  0000              add [bx+si],al
00001DFD  0000              add [bx+si],al
00001DFF  00C0              add al,al
00001E01  0000              add [bx+si],al
00001E03  0010              add [bx+si],dl
00001E05  0018              add [bx+si],bl
00001E07  0038              add [bx+si],bh
00001E09  1020              adc [bx+si],ah
00001E0B  0000              add [bx+si],al
00001E0D  0000              add [bx+si],al
00001E0F  0000              add [bx+si],al
00001E11  0000              add [bx+si],al
00001E13  0000              add [bx+si],al
00001E15  0000              add [bx+si],al
00001E17  007601            add [bp+0x1],dh
00001E1A  0000              add [bx+si],al
00001E1C  1200              adc al,[bx+si]
00001E1E  0D0030            or ax,0x3000
00001E21  050000            add ax,0x0
00001E24  0000              add [bx+si],al
00001E26  0000              add [bx+si],al
00001E28  2B00              sub ax,[bx+si]
00001E2A  0000              add [bx+si],al
00001E2C  0000              add [bx+si],al
00001E2E  0000              add [bx+si],al
00001E30  B80100            mov ax,0x1
00001E33  0010              add [bx+si],dl
00001E35  0018              add [bx+si],bl
00001E37  0030              add [bx+si],dh
00001E39  1020              adc [bx+si],ah
00001E3B  0000              add [bx+si],al
00001E3D  0000              add [bx+si],al
00001E3F  0000              add [bx+si],al
00001E41  0000              add [bx+si],al
00001E43  0000              add [bx+si],al
00001E45  0000              add [bx+si],al
00001E47  00C4              add ah,al
00001E49  0100              add [bx+si],ax
00001E4B  0012              add [bp+si],dl
00001E4D  000D              add [di],cl
00001E4F  002D              add [di],ch
00001E51  06                push es
00001E52  0000              add [bx+si],al
00001E54  0000              add [bx+si],al
00001E56  0000              add [bx+si],al
00001E58  150000            adc ax,0x0
00001E5B  0000              add [bx+si],al
00001E5D  0000              add [bx+si],al
00001E5F  00C9              add cl,cl
00001E61  0100              add [bx+si],ax
00001E63  0012              add [bp+si],dl
00001E65  000D              add [di],cl
00001E67  0015              add [di],dl
00001E69  06                push es
00001E6A  0000              add [bx+si],al
00001E6C  0000              add [bx+si],al
00001E6E  0000              add [bx+si],al
00001E70  1800              sbb [bx+si],al
00001E72  0000              add [bx+si],al
00001E74  0000              add [bx+si],al
00001E76  0000              add [bx+si],al
00001E78  D201              rol byte [bx+di],cl
00001E7A  0000              add [bx+si],al
00001E7C  1102              adc [bp+si],ax
00001E7E  17                pop ss
00001E7F  0030              add [bx+si],dh
00001E81  1020              adc [bx+si],ah
00001E83  0000              add [bx+si],al
00001E85  0000              add [bx+si],al
00001E87  0000              add [bx+si],al
00001E89  0000              add [bx+si],al
00001E8B  0000              add [bx+si],al
00001E8D  0000              add [bx+si],al
00001E8F  00DE              add dh,bl
00001E91  0100              add [bx+si],ax
00001E93  0020              add [bx+si],ah
00001E95  0000              add [bx+si],al
00001E97  0000              add [bx+si],al
00001E99  0000              add [bx+si],al
00001E9B  0000              add [bx+si],al
00001E9D  0000              add [bx+si],al
00001E9F  0000              add [bx+si],al
00001EA1  0000              add [bx+si],al
00001EA3  0000              add [bx+si],al
00001EA5  0000              add [bx+si],al
00001EA7  00F8              add al,bh
00001EA9  0100              add [bx+si],ax
00001EAB  0022              add [bp+si],ah
00001EAD  0000              add [bx+si],al
00001EAF  0000              add [bx+si],al
00001EB1  0000              add [bx+si],al
00001EB3  0000              add [bx+si],al
00001EB5  0000              add [bx+si],al
00001EB7  0000              add [bx+si],al
00001EB9  0000              add [bx+si],al
00001EBB  0000              add [bx+si],al
00001EBD  0000              add [bx+si],al
00001EBF  00B20100          add [bp+si+0x1],dh
00001EC3  0012              add [bp+si],dl
00001EC5  000B              add [bp+di],cl
00001EC7  00F0              add al,dh
00001EC9  0400              add al,0x0
00001ECB  0000              add [bx+si],al
00001ECD  0000              add [bx+si],al
00001ECF  0000              add [bx+si],al
00001ED1  0000              add [bx+si],al
00001ED3  0000              add [bx+si],al
00001ED5  0000              add [bx+si],al
00001ED7  0000              add [bx+si],al
00001ED9  696E69742E        imul bp,[bp+0x69],word 0x2e74
00001EDE  6300              arpl [bx+si],ax
00001EE0  637274            arpl [bp+si+0x74],si
00001EE3  7374              jnc 0x1f59
00001EE5  7566              jnz 0x1f4d
00001EE7  662E6300          o32 arpl [cs:bx+si],ax
00001EEB  64657265          gs jc 0x1f54
00001EEF  676973746572      imul si,[ebx+0x74],word 0x7265
00001EF5  5F                pop di
00001EF6  746D              jz 0x1f65
00001EF8  5F                pop di
00001EF9  636C6F            arpl [si+0x6f],bp
00001EFC  6E                outsb
00001EFD  657300            gs jnc 0x1f00
00001F00  5F                pop di
00001F01  5F                pop di
00001F02  646F              fs outsw
00001F04  5F                pop di
00001F05  676C              a32 insb
00001F07  6F                outsw
00001F08  62616C            bound sp,[bx+di+0x6c]
00001F0B  5F                pop di
00001F0C  64746F            fs jz 0x1f7e
00001F0F  7273              jc 0x1f84
00001F11  5F                pop di
00001F12  61                popa
00001F13  7578              jnz 0x1f8d
00001F15  00636F            add [bp+di+0x6f],ah
00001F18  6D                insw
00001F19  706C              jo 0x1f87
00001F1B  657465            gs jz 0x1f83
00001F1E  642E37            cs aaa
00001F21  3334              xor si,[si]
00001F23  3000              xor [bx+si],al
00001F25  5F                pop di
00001F26  5F                pop di
00001F27  646F              fs outsw
00001F29  5F                pop di
00001F2A  676C              a32 insb
00001F2C  6F                outsw
00001F2D  62616C            bound sp,[bx+di+0x6c]
00001F30  5F                pop di
00001F31  64746F            fs jz 0x1fa3
00001F34  7273              jc 0x1fa9
00001F36  5F                pop di
00001F37  61                popa
00001F38  7578              jnz 0x1fb2
00001F3A  5F                pop di
00001F3B  66696E695F617272  imul ebp,[bp+0x69],dword 0x7272615f
00001F43  61                popa
00001F44  795F              jns 0x1fa5
00001F46  656E              gs outsb
00001F48  7472              jz 0x1fbc
00001F4A  7900              jns 0x1f4c
00001F4C  667261            o32 jc 0x1fb0
00001F4F  6D                insw
00001F50  655F              gs pop di
00001F52  64756D            fs jnz 0x1fc2
00001F55  6D                insw
00001F56  7900              jns 0x1f58
00001F58  5F                pop di
00001F59  5F                pop di
00001F5A  667261            o32 jc 0x1fbe
00001F5D  6D                insw
00001F5E  655F              gs pop di
00001F60  64756D            fs jnz 0x1fd0
00001F63  6D                insw
00001F64  795F              jns 0x1fc5
00001F66  696E69745F        imul bp,[bp+0x69],word 0x5f74
00001F6B  61                popa
00001F6C  7272              jc 0x1fe0
00001F6E  61                popa
00001F6F  795F              jns 0x1fd0
00001F71  656E              gs outsb
00001F73  7472              jz 0x1fe7
00001F75  7900              jns 0x1f77
00001F77  6D                insw
00001F78  61                popa
00001F79  696E2E6300        imul bp,[bp+0x2e],word 0x63
00001F7E  5F                pop di
00001F7F  5F                pop di
00001F80  46                inc si
00001F81  52                push dx
00001F82  41                inc cx
00001F83  4D                dec bp
00001F84  45                inc bp
00001F85  5F                pop di
00001F86  45                inc bp
00001F87  4E                dec si
00001F88  44                inc sp
00001F89  5F                pop di
00001F8A  5F                pop di
00001F8B  005F5F            add [bx+0x5f],bl
00001F8E  696E69745F        imul bp,[bp+0x69],word 0x5f74
00001F93  61                popa
00001F94  7272              jc 0x2008
00001F96  61                popa
00001F97  795F              jns 0x1ff8
00001F99  656E              gs outsb
00001F9B  64005F44          add [fs:bx+0x44],bl
00001F9F  59                pop cx
00001FA0  4E                dec si
00001FA1  41                inc cx
00001FA2  4D                dec bp
00001FA3  49                dec cx
00001FA4  43                inc bx
00001FA5  005F5F            add [bx+0x5f],bl
00001FA8  696E69745F        imul bp,[bp+0x69],word 0x5f74
00001FAD  61                popa
00001FAE  7272              jc 0x2022
00001FB0  61                popa
00001FB1  795F              jns 0x2012
00001FB3  7374              jnc 0x2029
00001FB5  61                popa
00001FB6  7274              jc 0x202c
00001FB8  005F5F            add [bx+0x5f],bl
00001FBB  47                inc di
00001FBC  4E                dec si
00001FBD  55                push bp
00001FBE  5F                pop di
00001FBF  45                inc bp
00001FC0  48                dec ax
00001FC1  5F                pop di
00001FC2  46                inc si
00001FC3  52                push dx
00001FC4  41                inc cx
00001FC5  4D                dec bp
00001FC6  45                inc bp
00001FC7  5F                pop di
00001FC8  48                dec ax
00001FC9  44                inc sp
00001FCA  52                push dx
00001FCB  005F47            add [bx+0x47],bl
00001FCE  4C                dec sp
00001FCF  4F                dec di
00001FD0  42                inc dx
00001FD1  41                inc cx
00001FD2  4C                dec sp
00001FD3  5F                pop di
00001FD4  4F                dec di
00001FD5  46                inc si
00001FD6  46                inc si
00001FD7  53                push bx
00001FD8  45                inc bp
00001FD9  54                push sp
00001FDA  5F                pop di
00001FDB  54                push sp
00001FDC  41                inc cx
00001FDD  42                inc dx
00001FDE  4C                dec sp
00001FDF  45                inc bp
00001FE0  5F                pop di
00001FE1  005F5F            add [bx+0x5f],bl
00001FE4  6C                insb
00001FE5  6962635F63        imul sp,[bp+si+0x63],word 0x635f
00001FEA  7375              jnc 0x2061
00001FEC  5F                pop di
00001FED  66696E69005F4954  imul ebp,[bp+0x69],dword 0x54495f00
00001FF5  4D                dec bp
00001FF6  5F                pop di
00001FF7  64657265          gs jc 0x2060
00001FFB  676973746572      imul si,[ebx+0x74],word 0x7265
00002001  54                push sp
00002002  4D                dec bp
00002003  43                inc bx
00002004  6C                insb
00002005  6F                outsw
00002006  6E                outsb
00002007  6554              gs push sp
00002009  61                popa
0000200A  626C65            bound bp,[si+0x65]
0000200D  005F65            add [bx+0x65],bl
00002010  6461              fs popa
00002012  7461              jz 0x2075
00002014  007072            add [bx+si+0x72],dh
00002017  696E746640        imul bp,[bp+0x74],word 0x4066
0000201C  40                inc ax
0000201D  47                inc di
0000201E  4C                dec sp
0000201F  49                dec cx
00002020  42                inc dx
00002021  43                inc bx
00002022  5F                pop di
00002023  322E322E          xor ch,[0x2e32]
00002027  35005F            xor ax,0x5f00
0000202A  5F                pop di
0000202B  6C                insb
0000202C  6962635F73        imul sp,[bp+si+0x63],word 0x735f
00002031  7461              jz 0x2094
00002033  7274              jc 0x20a9
00002035  5F                pop di
00002036  6D                insw
00002037  61                popa
00002038  696E404047        imul bp,[bp+0x40],word 0x4740
0000203D  4C                dec sp
0000203E  49                dec cx
0000203F  42                inc dx
00002040  43                inc bx
00002041  5F                pop di
00002042  322E322E          xor ch,[0x2e32]
00002046  35005F            xor ax,0x5f00
00002049  5F                pop di
0000204A  6461              fs popa
0000204C  7461              jz 0x20af
0000204E  5F                pop di
0000204F  7374              jnc 0x20c5
00002051  61                popa
00002052  7274              jc 0x20c8
00002054  005F5F            add [bx+0x5f],bl
00002057  676D              a32 insw
00002059  6F                outsw
0000205A  6E                outsb
0000205B  5F                pop di
0000205C  7374              jnc 0x20d2
0000205E  61                popa
0000205F  7274              jc 0x20d5
00002061  5F                pop di
00002062  5F                pop di
00002063  005F5F            add [bx+0x5f],bl
00002066  64736F            fs jnc 0x20d8
00002069  5F                pop di
0000206A  68616E            push word 0x6e61
0000206D  646C              fs insb
0000206F  65005F49          add [gs:bx+0x49],bl
00002073  4F                dec di
00002074  5F                pop di
00002075  7374              jnc 0x20eb
00002077  64696E5F7573      imul bp,[fs:bp+0x5f],word 0x7375
0000207D  6564005F5F        add [fs:bx+0x5f],bl
00002082  6C                insb
00002083  6962635F63        imul sp,[bp+si+0x63],word 0x635f
00002088  7375              jnc 0x20ff
0000208A  5F                pop di
0000208B  696E697400        imul bp,[bp+0x69],word 0x74
00002090  5F                pop di
00002091  5F                pop di
00002092  627373            bound si,[bp+di+0x73]
00002095  5F                pop di
00002096  7374              jnc 0x210c
00002098  61                popa
00002099  7274              jc 0x210f
0000209B  006D61            add [di+0x61],ch
0000209E  696E006675        imul bp,[bp+0x0],word 0x7566
000020A3  6E                outsb
000020A4  637469            arpl [si+0x69],si
000020A7  6F                outsw
000020A8  6E                outsb
000020A9  005F5F            add [bx+0x5f],bl
000020AC  54                push sp
000020AD  4D                dec bp
000020AE  43                inc bx
000020AF  5F                pop di
000020B0  45                inc bp
000020B1  4E                dec si
000020B2  44                inc sp
000020B3  5F                pop di
000020B4  5F                pop di
000020B5  005F49            add [bx+0x49],bl
000020B8  54                push sp
000020B9  4D                dec bp
000020BA  5F                pop di
000020BB  7265              jc 0x2122
000020BD  676973746572      imul si,[ebx+0x74],word 0x7265
000020C3  54                push sp
000020C4  4D                dec bp
000020C5  43                inc bx
000020C6  6C                insb
000020C7  6F                outsw
000020C8  6E                outsb
000020C9  6554              gs push sp
000020CB  61                popa
000020CC  626C65            bound bp,[si+0x65]
000020CF  005F5F            add [bx+0x5f],bl
000020D2  637861            arpl [bx+si+0x61],di
000020D5  5F                pop di
000020D6  66696E616C697A65  imul ebp,[bp+0x61],dword 0x657a696c
000020DE  40                inc ax
000020DF  40                inc ax
000020E0  47                inc di
000020E1  4C                dec sp
000020E2  49                dec cx
000020E3  42                inc dx
000020E4  43                inc bx
000020E5  5F                pop di
000020E6  322E322E          xor ch,[0x2e32]
000020EA  350000            xor ax,0x0
000020ED  2E7379            cs jnc 0x2169
000020F0  6D                insw
000020F1  7461              jz 0x2154
000020F3  6200              bound ax,[bx+si]
000020F5  2E7374            cs jnc 0x216c
000020F8  7274              jc 0x216e
000020FA  61                popa
000020FB  6200              bound ax,[bx+si]
000020FD  2E7368            cs jnc 0x2168
00002100  7374              jnc 0x2176
00002102  7274              jc 0x2178
00002104  61                popa
00002105  6200              bound ax,[bx+si]
00002107  2E696E746572      imul bp,[cs:bp+0x74],word 0x7265
0000210D  7000              jo 0x210f
0000210F  2E6E              cs outsb
00002111  6F                outsw
00002112  7465              jz 0x2179
00002114  2E41              cs inc cx
00002116  42                inc dx
00002117  49                dec cx
00002118  2D7461            sub ax,0x6174
0000211B  67002E            add [esi],ch
0000211E  6E                outsb
0000211F  6F                outsw
00002120  7465              jz 0x2187
00002122  2E676E            cs a32 outsb
00002125  752E              jnz 0x2155
00002127  627569            bound si,[di+0x69]
0000212A  6C                insb
0000212B  642D6964          fs sub ax,0x6469
0000212F  002E676E          add [0x6e67],ch
00002133  752E              jnz 0x2163
00002135  686173            push word 0x7361
00002138  68002E            push word 0x2e00
0000213B  64796E            fs jns 0x21ac
0000213E  7379              jnc 0x21b9
00002140  6D                insw
00002141  002E6479          add [0x7964],ch
00002145  6E                outsb
00002146  7374              jnc 0x21bc
00002148  7200              jc 0x214a
0000214A  2E676E            cs a32 outsb
0000214D  752E              jnz 0x217d
0000214F  7665              jna 0x21b6
00002151  7273              jc 0x21c6
00002153  696F6E002E        imul bp,[bx+0x6e],word 0x2e00
00002158  676E              a32 outsb
0000215A  752E              jnz 0x218a
0000215C  7665              jna 0x21c3
0000215E  7273              jc 0x21d3
00002160  696F6E5F72        imul bp,[bx+0x6e],word 0x725f
00002165  002E7265          add [0x6572],ch
00002169  6C                insb
0000216A  61                popa
0000216B  2E64796E          fs jns 0x21dd
0000216F  002E7265          add [0x6572],ch
00002173  6C                insb
00002174  61                popa
00002175  2E706C            cs jo 0x21e4
00002178  7400              jz 0x217a
0000217A  2E696E697400      imul bp,[cs:bp+0x69],word 0x74
00002180  2E7465            cs jz 0x21e8
00002183  7874              js 0x21f9
00002185  002E6669          add [0x6966],ch
00002189  6E                outsb
0000218A  69002E72          imul ax,[bx+si],word 0x722e
0000218E  6F                outsw
0000218F  6461              fs popa
00002191  7461              jz 0x21f4
00002193  002E6568          add [0x6865],ch
00002197  5F                pop di
00002198  667261            o32 jc 0x21fc
0000219B  6D                insw
0000219C  655F              gs pop di
0000219E  686472            push word 0x7264
000021A1  002E6568          add [0x6865],ch
000021A5  5F                pop di
000021A6  667261            o32 jc 0x220a
000021A9  6D                insw
000021AA  65002E696E        add [gs:0x6e69],ch
000021AF  69745F6172        imul si,[si+0x5f],word 0x7261
000021B4  7261              jc 0x2217
000021B6  7900              jns 0x21b8
000021B8  2E66696E695F6172  imul ebp,[cs:bp+0x69],dword 0x7272615f
         -72
000021C1  61                popa
000021C2  7900              jns 0x21c4
000021C4  2E64796E          fs jns 0x2236
000021C8  61                popa
000021C9  6D                insw
000021CA  6963002E67        imul sp,[bp+di+0x0],word 0x672e
000021CF  6F                outsw
000021D0  7400              jz 0x21d2
000021D2  2E676F            cs a32 outsw
000021D5  742E              jz 0x2205
000021D7  706C              jo 0x2245
000021D9  7400              jz 0x21db
000021DB  2E6461            fs popa
000021DE  7461              jz 0x2241
000021E0  002E6273          add [0x7362],ch
000021E4  7300              jnc 0x21e6
000021E6  2E636F6D          arpl [cs:bx+0x6d],bp
000021EA  6D                insw
000021EB  656E              gs outsb
000021ED  7400              jz 0x21ef
000021EF  2E6465627567      bound si,[gs:di+0x67]
000021F5  5F                pop di
000021F6  61                popa
000021F7  7261              jc 0x225a
000021F9  6E                outsb
000021FA  67657300          gs jnc 0x21fe
000021FE  2E6465627567      bound si,[gs:di+0x67]
00002204  5F                pop di
00002205  696E666F00        imul bp,[bp+0x66],word 0x6f
0000220A  2E6465627567      bound si,[gs:di+0x67]
00002210  5F                pop di
00002211  61                popa
00002212  626272            bound sp,[bp+si+0x72]
00002215  657600            gs jna 0x2218
00002218  2E6465627567      bound si,[gs:di+0x67]
0000221E  5F                pop di
0000221F  6C                insb
00002220  696E65002E        imul bp,[bp+0x65],word 0x2e00
00002225  6465627567        bound si,[gs:di+0x67]
0000222A  5F                pop di
0000222B  7374              jnc 0x22a1
0000222D  7200              jc 0x222f
0000222F  0000              add [bx+si],al
00002231  0000              add [bx+si],al
00002233  0000              add [bx+si],al
00002235  0000              add [bx+si],al
00002237  0000              add [bx+si],al
00002239  0000              add [bx+si],al
0000223B  0000              add [bx+si],al
0000223D  0000              add [bx+si],al
0000223F  0000              add [bx+si],al
00002241  0000              add [bx+si],al
00002243  0000              add [bx+si],al
00002245  0000              add [bx+si],al
00002247  0000              add [bx+si],al
00002249  0000              add [bx+si],al
0000224B  0000              add [bx+si],al
0000224D  0000              add [bx+si],al
0000224F  0000              add [bx+si],al
00002251  0000              add [bx+si],al
00002253  0000              add [bx+si],al
00002255  0000              add [bx+si],al
00002257  0000              add [bx+si],al
00002259  0000              add [bx+si],al
0000225B  0000              add [bx+si],al
0000225D  0000              add [bx+si],al
0000225F  0000              add [bx+si],al
00002261  0000              add [bx+si],al
00002263  0000              add [bx+si],al
00002265  0000              add [bx+si],al
00002267  0000              add [bx+si],al
00002269  0000              add [bx+si],al
0000226B  0000              add [bx+si],al
0000226D  0000              add [bx+si],al
0000226F  001B              add [bp+di],bl
00002271  0000              add [bx+si],al
00002273  0001              add [bx+di],al
00002275  0000              add [bx+si],al
00002277  0002              add [bp+si],al
00002279  0000              add [bx+si],al
0000227B  0000              add [bx+si],al
0000227D  0000              add [bx+si],al
0000227F  0038              add [bx+si],bh
00002281  0200              add al,[bx+si]
00002283  0000              add [bx+si],al
00002285  0000              add [bx+si],al
00002287  0038              add [bx+si],bh
00002289  0200              add al,[bx+si]
0000228B  0000              add [bx+si],al
0000228D  0000              add [bx+si],al
0000228F  001C              add [si],bl
00002291  0000              add [bx+si],al
00002293  0000              add [bx+si],al
00002295  0000              add [bx+si],al
00002297  0000              add [bx+si],al
00002299  0000              add [bx+si],al
0000229B  0000              add [bx+si],al
0000229D  0000              add [bx+si],al
0000229F  0001              add [bx+di],al
000022A1  0000              add [bx+si],al
000022A3  0000              add [bx+si],al
000022A5  0000              add [bx+si],al
000022A7  0000              add [bx+si],al
000022A9  0000              add [bx+si],al
000022AB  0000              add [bx+si],al
000022AD  0000              add [bx+si],al
000022AF  0023              add [bp+di],ah
000022B1  0000              add [bx+si],al
000022B3  0007              add [bx],al
000022B5  0000              add [bx+si],al
000022B7  0002              add [bp+si],al
000022B9  0000              add [bx+si],al
000022BB  0000              add [bx+si],al
000022BD  0000              add [bx+si],al
000022BF  005402            add [si+0x2],dl
000022C2  0000              add [bx+si],al
000022C4  0000              add [bx+si],al
000022C6  0000              add [bx+si],al
000022C8  54                push sp
000022C9  0200              add al,[bx+si]
000022CB  0000              add [bx+si],al
000022CD  0000              add [bx+si],al
000022CF  0020              add [bx+si],ah
000022D1  0000              add [bx+si],al
000022D3  0000              add [bx+si],al
000022D5  0000              add [bx+si],al
000022D7  0000              add [bx+si],al
000022D9  0000              add [bx+si],al
000022DB  0000              add [bx+si],al
000022DD  0000              add [bx+si],al
000022DF  0004              add [si],al
000022E1  0000              add [bx+si],al
000022E3  0000              add [bx+si],al
000022E5  0000              add [bx+si],al
000022E7  0000              add [bx+si],al
000022E9  0000              add [bx+si],al
000022EB  0000              add [bx+si],al
000022ED  0000              add [bx+si],al
000022EF  0031              add [bx+di],dh
000022F1  0000              add [bx+si],al
000022F3  0007              add [bx],al
000022F5  0000              add [bx+si],al
000022F7  0002              add [bp+si],al
000022F9  0000              add [bx+si],al
000022FB  0000              add [bx+si],al
000022FD  0000              add [bx+si],al
000022FF  007402            add [si+0x2],dh
00002302  0000              add [bx+si],al
00002304  0000              add [bx+si],al
00002306  0000              add [bx+si],al
00002308  7402              jz 0x230c
0000230A  0000              add [bx+si],al
0000230C  0000              add [bx+si],al
0000230E  0000              add [bx+si],al
00002310  2400              and al,0x0
00002312  0000              add [bx+si],al
00002314  0000              add [bx+si],al
00002316  0000              add [bx+si],al
00002318  0000              add [bx+si],al
0000231A  0000              add [bx+si],al
0000231C  0000              add [bx+si],al
0000231E  0000              add [bx+si],al
00002320  0400              add al,0x0
00002322  0000              add [bx+si],al
00002324  0000              add [bx+si],al
00002326  0000              add [bx+si],al
00002328  0000              add [bx+si],al
0000232A  0000              add [bx+si],al
0000232C  0000              add [bx+si],al
0000232E  0000              add [bx+si],al
00002330  44                inc sp
00002331  0000              add [bx+si],al
00002333  00F6              add dh,dh
00002335  FF                db 0xff
00002336  FF6F02            jmp far [bx+0x2]
00002339  0000              add [bx+si],al
0000233B  0000              add [bx+si],al
0000233D  0000              add [bx+si],al
0000233F  00980200          add [bx+si+0x2],bl
00002343  0000              add [bx+si],al
00002345  0000              add [bx+si],al
00002347  00980200          add [bx+si+0x2],bl
0000234B  0000              add [bx+si],al
0000234D  0000              add [bx+si],al
0000234F  001C              add [si],bl
00002351  0000              add [bx+si],al
00002353  0000              add [bx+si],al
00002355  0000              add [bx+si],al
00002357  0005              add [di],al
00002359  0000              add [bx+si],al
0000235B  0000              add [bx+si],al
0000235D  0000              add [bx+si],al
0000235F  0008              add [bx+si],cl
00002361  0000              add [bx+si],al
00002363  0000              add [bx+si],al
00002365  0000              add [bx+si],al
00002367  0000              add [bx+si],al
00002369  0000              add [bx+si],al
0000236B  0000              add [bx+si],al
0000236D  0000              add [bx+si],al
0000236F  004E00            add [bp+0x0],cl
00002372  0000              add [bx+si],al
00002374  0B00              or ax,[bx+si]
00002376  0000              add [bx+si],al
00002378  0200              add al,[bx+si]
0000237A  0000              add [bx+si],al
0000237C  0000              add [bx+si],al
0000237E  0000              add [bx+si],al
00002380  B80200            mov ax,0x2
00002383  0000              add [bx+si],al
00002385  0000              add [bx+si],al
00002387  00B80200          add [bx+si+0x2],bh
0000238B  0000              add [bx+si],al
0000238D  0000              add [bx+si],al
0000238F  00A80000          add [bx+si+0x0],ch
00002393  0000              add [bx+si],al
00002395  0000              add [bx+si],al
00002397  00060000          add [0x0],al
0000239B  0001              add [bx+di],al
0000239D  0000              add [bx+si],al
0000239F  0008              add [bx+si],cl
000023A1  0000              add [bx+si],al
000023A3  0000              add [bx+si],al
000023A5  0000              add [bx+si],al
000023A7  0018              add [bx+si],bl
000023A9  0000              add [bx+si],al
000023AB  0000              add [bx+si],al
000023AD  0000              add [bx+si],al
000023AF  005600            add [bp+0x0],dl
000023B2  0000              add [bx+si],al
000023B4  0300              add ax,[bx+si]
000023B6  0000              add [bx+si],al
000023B8  0200              add al,[bx+si]
000023BA  0000              add [bx+si],al
000023BC  0000              add [bx+si],al
000023BE  0000              add [bx+si],al
000023C0  60                pusha
000023C1  0300              add ax,[bx+si]
000023C3  0000              add [bx+si],al
000023C5  0000              add [bx+si],al
000023C7  006003            add [bx+si+0x3],ah
000023CA  0000              add [bx+si],al
000023CC  0000              add [bx+si],al
000023CE  0000              add [bx+si],al
000023D0  8400              test [bx+si],al
000023D2  0000              add [bx+si],al
000023D4  0000              add [bx+si],al
000023D6  0000              add [bx+si],al
000023D8  0000              add [bx+si],al
000023DA  0000              add [bx+si],al
000023DC  0000              add [bx+si],al
000023DE  0000              add [bx+si],al
000023E0  0100              add [bx+si],ax
000023E2  0000              add [bx+si],al
000023E4  0000              add [bx+si],al
000023E6  0000              add [bx+si],al
000023E8  0000              add [bx+si],al
000023EA  0000              add [bx+si],al
000023EC  0000              add [bx+si],al
000023EE  0000              add [bx+si],al
000023F0  5E                pop si
000023F1  0000              add [bx+si],al
000023F3  00FF              add bh,bh
000023F5  FF                db 0xff
000023F6  FF6F02            jmp far [bx+0x2]
000023F9  0000              add [bx+si],al
000023FB  0000              add [bx+si],al
000023FD  0000              add [bx+si],al
000023FF  00E4              add ah,ah
00002401  0300              add ax,[bx+si]
00002403  0000              add [bx+si],al
00002405  0000              add [bx+si],al
00002407  00E4              add ah,ah
00002409  0300              add ax,[bx+si]
0000240B  0000              add [bx+si],al
0000240D  0000              add [bx+si],al
0000240F  000E0000          add [0x0],cl
00002413  0000              add [bx+si],al
00002415  0000              add [bx+si],al
00002417  0005              add [di],al
00002419  0000              add [bx+si],al
0000241B  0000              add [bx+si],al
0000241D  0000              add [bx+si],al
0000241F  0002              add [bp+si],al
00002421  0000              add [bx+si],al
00002423  0000              add [bx+si],al
00002425  0000              add [bx+si],al
00002427  0002              add [bp+si],al
00002429  0000              add [bx+si],al
0000242B  0000              add [bx+si],al
0000242D  0000              add [bx+si],al
0000242F  006B00            add [bp+di+0x0],ch
00002432  0000              add [bx+si],al
00002434  FE                db 0xfe
00002435  FF                db 0xff
00002436  FF6F02            jmp far [bx+0x2]
00002439  0000              add [bx+si],al
0000243B  0000              add [bx+si],al
0000243D  0000              add [bx+si],al
0000243F  00F8              add al,bh
00002441  0300              add ax,[bx+si]
00002443  0000              add [bx+si],al
00002445  0000              add [bx+si],al
00002447  00F8              add al,bh
00002449  0300              add ax,[bx+si]
0000244B  0000              add [bx+si],al
0000244D  0000              add [bx+si],al
0000244F  0020              add [bx+si],ah
00002451  0000              add [bx+si],al
00002453  0000              add [bx+si],al
00002455  0000              add [bx+si],al
00002457  00060000          add [0x0],al
0000245B  0001              add [bx+di],al
0000245D  0000              add [bx+si],al
0000245F  0008              add [bx+si],cl
00002461  0000              add [bx+si],al
00002463  0000              add [bx+si],al
00002465  0000              add [bx+si],al
00002467  0000              add [bx+si],al
00002469  0000              add [bx+si],al
0000246B  0000              add [bx+si],al
0000246D  0000              add [bx+si],al
0000246F  007A00            add [bp+si+0x0],bh
00002472  0000              add [bx+si],al
00002474  0400              add al,0x0
00002476  0000              add [bx+si],al
00002478  0200              add al,[bx+si]
0000247A  0000              add [bx+si],al
0000247C  0000              add [bx+si],al
0000247E  0000              add [bx+si],al
00002480  1804              sbb [si],al
00002482  0000              add [bx+si],al
00002484  0000              add [bx+si],al
00002486  0000              add [bx+si],al
00002488  1804              sbb [si],al
0000248A  0000              add [bx+si],al
0000248C  0000              add [bx+si],al
0000248E  0000              add [bx+si],al
00002490  C00000            rol byte [bx+si],byte 0x0
00002493  0000              add [bx+si],al
00002495  0000              add [bx+si],al
00002497  0005              add [di],al
00002499  0000              add [bx+si],al
0000249B  0000              add [bx+si],al
0000249D  0000              add [bx+si],al
0000249F  0008              add [bx+si],cl
000024A1  0000              add [bx+si],al
000024A3  0000              add [bx+si],al
000024A5  0000              add [bx+si],al
000024A7  0018              add [bx+si],bl
000024A9  0000              add [bx+si],al
000024AB  0000              add [bx+si],al
000024AD  0000              add [bx+si],al
000024AF  00840000          add [si+0x0],al
000024B3  0004              add [si],al
000024B5  0000              add [bx+si],al
000024B7  004200            add [bp+si+0x0],al
000024BA  0000              add [bx+si],al
000024BC  0000              add [bx+si],al
000024BE  0000              add [bx+si],al
000024C0  D804              fadd dword [si]
000024C2  0000              add [bx+si],al
000024C4  0000              add [bx+si],al
000024C6  0000              add [bx+si],al
000024C8  D804              fadd dword [si]
000024CA  0000              add [bx+si],al
000024CC  0000              add [bx+si],al
000024CE  0000              add [bx+si],al
000024D0  1800              sbb [bx+si],al
000024D2  0000              add [bx+si],al
000024D4  0000              add [bx+si],al
000024D6  0000              add [bx+si],al
000024D8  050000            add ax,0x0
000024DB  00160000          add [0x0],dl
000024DF  0008              add [bx+si],cl
000024E1  0000              add [bx+si],al
000024E3  0000              add [bx+si],al
000024E5  0000              add [bx+si],al
000024E7  0018              add [bx+si],bl
000024E9  0000              add [bx+si],al
000024EB  0000              add [bx+si],al
000024ED  0000              add [bx+si],al
000024EF  008E0000          add [bp+0x0],cl
000024F3  0001              add [bx+di],al
000024F5  0000              add [bx+si],al
000024F7  00060000          add [0x0],al
000024FB  0000              add [bx+si],al
000024FD  0000              add [bx+si],al
000024FF  00F0              add al,dh
00002501  0400              add al,0x0
00002503  0000              add [bx+si],al
00002505  0000              add [bx+si],al
00002507  00F0              add al,dh
00002509  0400              add al,0x0
0000250B  0000              add [bx+si],al
0000250D  0000              add [bx+si],al
0000250F  0017              add [bx],dl
00002511  0000              add [bx+si],al
00002513  0000              add [bx+si],al
00002515  0000              add [bx+si],al
00002517  0000              add [bx+si],al
00002519  0000              add [bx+si],al
0000251B  0000              add [bx+si],al
0000251D  0000              add [bx+si],al
0000251F  0004              add [si],al
00002521  0000              add [bx+si],al
00002523  0000              add [bx+si],al
00002525  0000              add [bx+si],al
00002527  0000              add [bx+si],al
00002529  0000              add [bx+si],al
0000252B  0000              add [bx+si],al
0000252D  0000              add [bx+si],al
0000252F  00890000          add [bx+di+0x0],cl
00002533  0001              add [bx+di],al
00002535  0000              add [bx+si],al
00002537  00060000          add [0x0],al
0000253B  0000              add [bx+si],al
0000253D  0000              add [bx+si],al
0000253F  0010              add [bx+si],dl
00002541  050000            add ax,0x0
00002544  0000              add [bx+si],al
00002546  0000              add [bx+si],al
00002548  1005              adc [di],al
0000254A  0000              add [bx+si],al
0000254C  0000              add [bx+si],al
0000254E  0000              add [bx+si],al
00002550  2000              and [bx+si],al
00002552  0000              add [bx+si],al
00002554  0000              add [bx+si],al
00002556  0000              add [bx+si],al
00002558  0000              add [bx+si],al
0000255A  0000              add [bx+si],al
0000255C  0000              add [bx+si],al
0000255E  0000              add [bx+si],al
00002560  1000              adc [bx+si],al
00002562  0000              add [bx+si],al
00002564  0000              add [bx+si],al
00002566  0000              add [bx+si],al
00002568  1000              adc [bx+si],al
0000256A  0000              add [bx+si],al
0000256C  0000              add [bx+si],al
0000256E  0000              add [bx+si],al
00002570  94                xchg ax,sp
00002571  0000              add [bx+si],al
00002573  0001              add [bx+di],al
00002575  0000              add [bx+si],al
00002577  00060000          add [0x0],al
0000257B  0000              add [bx+si],al
0000257D  0000              add [bx+si],al
0000257F  0030              add [bx+si],dh
00002581  050000            add ax,0x0
00002584  0000              add [bx+si],al
00002586  0000              add [bx+si],al
00002588  3005              xor [di],al
0000258A  0000              add [bx+si],al
0000258C  0000              add [bx+si],al
0000258E  0000              add [bx+si],al
00002590  91                xchg ax,cx
00002591  0100              add [bx+si],ax
00002593  0000              add [bx+si],al
00002595  0000              add [bx+si],al
00002597  0000              add [bx+si],al
00002599  0000              add [bx+si],al
0000259B  0000              add [bx+si],al
0000259D  0000              add [bx+si],al
0000259F  0010              add [bx+si],dl
000025A1  0000              add [bx+si],al
000025A3  0000              add [bx+si],al
000025A5  0000              add [bx+si],al
000025A7  0000              add [bx+si],al
000025A9  0000              add [bx+si],al
000025AB  0000              add [bx+si],al
000025AD  0000              add [bx+si],al
000025AF  009A0000          add [bp+si+0x0],bl
000025B3  0001              add [bx+di],al
000025B5  0000              add [bx+si],al
000025B7  00060000          add [0x0],al
000025BB  0000              add [bx+si],al
000025BD  0000              add [bx+si],al
000025BF  00C4              add ah,al
000025C1  06                push es
000025C2  0000              add [bx+si],al
000025C4  0000              add [bx+si],al
000025C6  0000              add [bx+si],al
000025C8  C4060000          les ax,[0x0]
000025CC  0000              add [bx+si],al
000025CE  0000              add [bx+si],al
000025D0  0900              or [bx+si],ax
000025D2  0000              add [bx+si],al
000025D4  0000              add [bx+si],al
000025D6  0000              add [bx+si],al
000025D8  0000              add [bx+si],al
000025DA  0000              add [bx+si],al
000025DC  0000              add [bx+si],al
000025DE  0000              add [bx+si],al
000025E0  0400              add al,0x0
000025E2  0000              add [bx+si],al
000025E4  0000              add [bx+si],al
000025E6  0000              add [bx+si],al
000025E8  0000              add [bx+si],al
000025EA  0000              add [bx+si],al
000025EC  0000              add [bx+si],al
000025EE  0000              add [bx+si],al
000025F0  A00000            mov al,[0x0]
000025F3  0001              add [bx+di],al
000025F5  0000              add [bx+si],al
000025F7  0002              add [bp+si],al
000025F9  0000              add [bx+si],al
000025FB  0000              add [bx+si],al
000025FD  0000              add [bx+si],al
000025FF  00D0              add al,dl
00002601  06                push es
00002602  0000              add [bx+si],al
00002604  0000              add [bx+si],al
00002606  0000              add [bx+si],al
00002608  D0060000          rol byte [0x0],1
0000260C  0000              add [bx+si],al
0000260E  0000              add [bx+si],al
00002610  07                pop es
00002611  0000              add [bx+si],al
00002613  0000              add [bx+si],al
00002615  0000              add [bx+si],al
00002617  0000              add [bx+si],al
00002619  0000              add [bx+si],al
0000261B  0000              add [bx+si],al
0000261D  0000              add [bx+si],al
0000261F  0004              add [si],al
00002621  0000              add [bx+si],al
00002623  0000              add [bx+si],al
00002625  0000              add [bx+si],al
00002627  0000              add [bx+si],al
00002629  0000              add [bx+si],al
0000262B  0000              add [bx+si],al
0000262D  0000              add [bx+si],al
0000262F  00A80000          add [bx+si+0x0],ch
00002633  0001              add [bx+di],al
00002635  0000              add [bx+si],al
00002637  0002              add [bp+si],al
00002639  0000              add [bx+si],al
0000263B  0000              add [bx+si],al
0000263D  0000              add [bx+si],al
0000263F  00D8              add al,bl
00002641  06                push es
00002642  0000              add [bx+si],al
00002644  0000              add [bx+si],al
00002646  0000              add [bx+si],al
00002648  D8060000          fadd dword [0x0]
0000264C  0000              add [bx+si],al
0000264E  0000              add [bx+si],al
00002650  3C00              cmp al,0x0
00002652  0000              add [bx+si],al
00002654  0000              add [bx+si],al
00002656  0000              add [bx+si],al
00002658  0000              add [bx+si],al
0000265A  0000              add [bx+si],al
0000265C  0000              add [bx+si],al
0000265E  0000              add [bx+si],al
00002660  0400              add al,0x0
00002662  0000              add [bx+si],al
00002664  0000              add [bx+si],al
00002666  0000              add [bx+si],al
00002668  0000              add [bx+si],al
0000266A  0000              add [bx+si],al
0000266C  0000              add [bx+si],al
0000266E  0000              add [bx+si],al
00002670  B600              mov dh,0x0
00002672  0000              add [bx+si],al
00002674  0100              add [bx+si],ax
00002676  0000              add [bx+si],al
00002678  0200              add al,[bx+si]
0000267A  0000              add [bx+si],al
0000267C  0000              add [bx+si],al
0000267E  0000              add [bx+si],al
00002680  1807              sbb [bx],al
00002682  0000              add [bx+si],al
00002684  0000              add [bx+si],al
00002686  0000              add [bx+si],al
00002688  1807              sbb [bx],al
0000268A  0000              add [bx+si],al
0000268C  0000              add [bx+si],al
0000268E  0000              add [bx+si],al
00002690  1001              adc [bx+di],al
00002692  0000              add [bx+si],al
00002694  0000              add [bx+si],al
00002696  0000              add [bx+si],al
00002698  0000              add [bx+si],al
0000269A  0000              add [bx+si],al
0000269C  0000              add [bx+si],al
0000269E  0000              add [bx+si],al
000026A0  0800              or [bx+si],al
000026A2  0000              add [bx+si],al
000026A4  0000              add [bx+si],al
000026A6  0000              add [bx+si],al
000026A8  0000              add [bx+si],al
000026AA  0000              add [bx+si],al
000026AC  0000              add [bx+si],al
000026AE  0000              add [bx+si],al
000026B0  C00000            rol byte [bx+si],byte 0x0
000026B3  000E0000          add [0x0],cl
000026B7  0003              add [bp+di],al
000026B9  0000              add [bx+si],al
000026BB  0000              add [bx+si],al
000026BD  0000              add [bx+si],al
000026BF  00E8              add al,ch
000026C1  0D2000            or ax,0x20
000026C4  0000              add [bx+si],al
000026C6  0000              add [bx+si],al
000026C8  E80D00            call 0x26d8
000026CB  0000              add [bx+si],al
000026CD  0000              add [bx+si],al
000026CF  0008              add [bx+si],cl
000026D1  0000              add [bx+si],al
000026D3  0000              add [bx+si],al
000026D5  0000              add [bx+si],al
000026D7  0000              add [bx+si],al
000026D9  0000              add [bx+si],al
000026DB  0000              add [bx+si],al
000026DD  0000              add [bx+si],al
000026DF  0008              add [bx+si],cl
000026E1  0000              add [bx+si],al
000026E3  0000              add [bx+si],al
000026E5  0000              add [bx+si],al
000026E7  0008              add [bx+si],cl
000026E9  0000              add [bx+si],al
000026EB  0000              add [bx+si],al
000026ED  0000              add [bx+si],al
000026EF  00CC              add ah,cl
000026F1  0000              add [bx+si],al
000026F3  000F              add [bx],cl
000026F5  0000              add [bx+si],al
000026F7  0003              add [bp+di],al
000026F9  0000              add [bx+si],al
000026FB  0000              add [bx+si],al
000026FD  0000              add [bx+si],al
000026FF  00F0              add al,dh
00002701  0D2000            or ax,0x20
00002704  0000              add [bx+si],al
00002706  0000              add [bx+si],al
00002708  F00D0000          lock or ax,0x0
0000270C  0000              add [bx+si],al
0000270E  0000              add [bx+si],al
00002710  0800              or [bx+si],al
00002712  0000              add [bx+si],al
00002714  0000              add [bx+si],al
00002716  0000              add [bx+si],al
00002718  0000              add [bx+si],al
0000271A  0000              add [bx+si],al
0000271C  0000              add [bx+si],al
0000271E  0000              add [bx+si],al
00002720  0800              or [bx+si],al
00002722  0000              add [bx+si],al
00002724  0000              add [bx+si],al
00002726  0000              add [bx+si],al
00002728  0800              or [bx+si],al
0000272A  0000              add [bx+si],al
0000272C  0000              add [bx+si],al
0000272E  0000              add [bx+si],al
00002730  D800              fadd dword [bx+si]
00002732  0000              add [bx+si],al
00002734  06                push es
00002735  0000              add [bx+si],al
00002737  0003              add [bp+di],al
00002739  0000              add [bx+si],al
0000273B  0000              add [bx+si],al
0000273D  0000              add [bx+si],al
0000273F  00F8              add al,bh
00002741  0D2000            or ax,0x20
00002744  0000              add [bx+si],al
00002746  0000              add [bx+si],al
00002748  F8                clc
00002749  0D0000            or ax,0x0
0000274C  0000              add [bx+si],al
0000274E  0000              add [bx+si],al
00002750  E001              loopne 0x2753
00002752  0000              add [bx+si],al
00002754  0000              add [bx+si],al
00002756  0000              add [bx+si],al
00002758  06                push es
00002759  0000              add [bx+si],al
0000275B  0000              add [bx+si],al
0000275D  0000              add [bx+si],al
0000275F  0008              add [bx+si],cl
00002761  0000              add [bx+si],al
00002763  0000              add [bx+si],al
00002765  0000              add [bx+si],al
00002767  0010              add [bx+si],dl
00002769  0000              add [bx+si],al
0000276B  0000              add [bx+si],al
0000276D  0000              add [bx+si],al
0000276F  00E1              add cl,ah
00002771  0000              add [bx+si],al
00002773  0001              add [bx+di],al
00002775  0000              add [bx+si],al
00002777  0003              add [bp+di],al
00002779  0000              add [bx+si],al
0000277B  0000              add [bx+si],al
0000277D  0000              add [bx+si],al
0000277F  00D8              add al,bl
00002781  0F                db 0x0f
00002782  2000              and [bx+si],al
00002784  0000              add [bx+si],al
00002786  0000              add [bx+si],al
00002788  D80F              fmul dword [bx]
0000278A  0000              add [bx+si],al
0000278C  0000              add [bx+si],al
0000278E  0000              add [bx+si],al
00002790  2800              sub [bx+si],al
00002792  0000              add [bx+si],al
00002794  0000              add [bx+si],al
00002796  0000              add [bx+si],al
00002798  0000              add [bx+si],al
0000279A  0000              add [bx+si],al
0000279C  0000              add [bx+si],al
0000279E  0000              add [bx+si],al
000027A0  0800              or [bx+si],al
000027A2  0000              add [bx+si],al
000027A4  0000              add [bx+si],al
000027A6  0000              add [bx+si],al
000027A8  0800              or [bx+si],al
000027AA  0000              add [bx+si],al
000027AC  0000              add [bx+si],al
000027AE  0000              add [bx+si],al
000027B0  E600              out 0x0,al
000027B2  0000              add [bx+si],al
000027B4  0100              add [bx+si],ax
000027B6  0000              add [bx+si],al
000027B8  0300              add ax,[bx+si]
000027BA  0000              add [bx+si],al
000027BC  0000              add [bx+si],al
000027BE  0000              add [bx+si],al
000027C0  0010              add [bx+si],dl
000027C2  2000              and [bx+si],al
000027C4  0000              add [bx+si],al
000027C6  0000              add [bx+si],al
000027C8  0010              add [bx+si],dl
000027CA  0000              add [bx+si],al
000027CC  0000              add [bx+si],al
000027CE  0000              add [bx+si],al
000027D0  2000              and [bx+si],al
000027D2  0000              add [bx+si],al
000027D4  0000              add [bx+si],al
000027D6  0000              add [bx+si],al
000027D8  0000              add [bx+si],al
000027DA  0000              add [bx+si],al
000027DC  0000              add [bx+si],al
000027DE  0000              add [bx+si],al
000027E0  0800              or [bx+si],al
000027E2  0000              add [bx+si],al
000027E4  0000              add [bx+si],al
000027E6  0000              add [bx+si],al
000027E8  0800              or [bx+si],al
000027EA  0000              add [bx+si],al
000027EC  0000              add [bx+si],al
000027EE  0000              add [bx+si],al
000027F0  EF                out dx,ax
000027F1  0000              add [bx+si],al
000027F3  0001              add [bx+di],al
000027F5  0000              add [bx+si],al
000027F7  0003              add [bp+di],al
000027F9  0000              add [bx+si],al
000027FB  0000              add [bx+si],al
000027FD  0000              add [bx+si],al
000027FF  0020              add [bx+si],ah
00002801  1020              adc [bx+si],ah
00002803  0000              add [bx+si],al
00002805  0000              add [bx+si],al
00002807  0020              add [bx+si],ah
00002809  1000              adc [bx+si],al
0000280B  0000              add [bx+si],al
0000280D  0000              add [bx+si],al
0000280F  0010              add [bx+si],dl
00002811  0000              add [bx+si],al
00002813  0000              add [bx+si],al
00002815  0000              add [bx+si],al
00002817  0000              add [bx+si],al
00002819  0000              add [bx+si],al
0000281B  0000              add [bx+si],al
0000281D  0000              add [bx+si],al
0000281F  0008              add [bx+si],cl
00002821  0000              add [bx+si],al
00002823  0000              add [bx+si],al
00002825  0000              add [bx+si],al
00002827  0000              add [bx+si],al
00002829  0000              add [bx+si],al
0000282B  0000              add [bx+si],al
0000282D  0000              add [bx+si],al
0000282F  00F5              add ch,dh
00002831  0000              add [bx+si],al
00002833  0008              add [bx+si],cl
00002835  0000              add [bx+si],al
00002837  0003              add [bp+di],al
00002839  0000              add [bx+si],al
0000283B  0000              add [bx+si],al
0000283D  0000              add [bx+si],al
0000283F  0030              add [bx+si],dh
00002841  1020              adc [bx+si],ah
00002843  0000              add [bx+si],al
00002845  0000              add [bx+si],al
00002847  0030              add [bx+si],dh
00002849  1000              adc [bx+si],al
0000284B  0000              add [bx+si],al
0000284D  0000              add [bx+si],al
0000284F  0008              add [bx+si],cl
00002851  0000              add [bx+si],al
00002853  0000              add [bx+si],al
00002855  0000              add [bx+si],al
00002857  0000              add [bx+si],al
00002859  0000              add [bx+si],al
0000285B  0000              add [bx+si],al
0000285D  0000              add [bx+si],al
0000285F  0001              add [bx+di],al
00002861  0000              add [bx+si],al
00002863  0000              add [bx+si],al
00002865  0000              add [bx+si],al
00002867  0000              add [bx+si],al
00002869  0000              add [bx+si],al
0000286B  0000              add [bx+si],al
0000286D  0000              add [bx+si],al
0000286F  00FA              add dl,bh
00002871  0000              add [bx+si],al
00002873  0001              add [bx+di],al
00002875  0000              add [bx+si],al
00002877  0030              add [bx+si],dh
00002879  0000              add [bx+si],al
0000287B  0000              add [bx+si],al
0000287D  0000              add [bx+si],al
0000287F  0000              add [bx+si],al
00002881  0000              add [bx+si],al
00002883  0000              add [bx+si],al
00002885  0000              add [bx+si],al
00002887  0030              add [bx+si],dh
00002889  1000              adc [bx+si],al
0000288B  0000              add [bx+si],al
0000288D  0000              add [bx+si],al
0000288F  0011              add [bx+di],dl
00002891  0000              add [bx+si],al
00002893  0000              add [bx+si],al
00002895  0000              add [bx+si],al
00002897  0000              add [bx+si],al
00002899  0000              add [bx+si],al
0000289B  0000              add [bx+si],al
0000289D  0000              add [bx+si],al
0000289F  0001              add [bx+di],al
000028A1  0000              add [bx+si],al
000028A3  0000              add [bx+si],al
000028A5  0000              add [bx+si],al
000028A7  0001              add [bx+di],al
000028A9  0000              add [bx+si],al
000028AB  0000              add [bx+si],al
000028AD  0000              add [bx+si],al
000028AF  0003              add [bp+di],al
000028B1  0100              add [bx+si],ax
000028B3  0001              add [bx+di],al
000028B5  0000              add [bx+si],al
000028B7  0000              add [bx+si],al
000028B9  0000              add [bx+si],al
000028BB  0000              add [bx+si],al
000028BD  0000              add [bx+si],al
000028BF  0000              add [bx+si],al
000028C1  0000              add [bx+si],al
000028C3  0000              add [bx+si],al
000028C5  0000              add [bx+si],al
000028C7  004110            add [bx+di+0x10],al
000028CA  0000              add [bx+si],al
000028CC  0000              add [bx+si],al
000028CE  0000              add [bx+si],al
000028D0  3000              xor [bx+si],al
000028D2  0000              add [bx+si],al
000028D4  0000              add [bx+si],al
000028D6  0000              add [bx+si],al
000028D8  0000              add [bx+si],al
000028DA  0000              add [bx+si],al
000028DC  0000              add [bx+si],al
000028DE  0000              add [bx+si],al
000028E0  0100              add [bx+si],ax
000028E2  0000              add [bx+si],al
000028E4  0000              add [bx+si],al
000028E6  0000              add [bx+si],al
000028E8  0000              add [bx+si],al
000028EA  0000              add [bx+si],al
000028EC  0000              add [bx+si],al
000028EE  0000              add [bx+si],al
000028F0  1201              adc al,[bx+di]
000028F2  0000              add [bx+si],al
000028F4  0100              add [bx+si],ax
000028F6  0000              add [bx+si],al
000028F8  0000              add [bx+si],al
000028FA  0000              add [bx+si],al
000028FC  0000              add [bx+si],al
000028FE  0000              add [bx+si],al
00002900  0000              add [bx+si],al
00002902  0000              add [bx+si],al
00002904  0000              add [bx+si],al
00002906  0000              add [bx+si],al
00002908  7110              jno 0x291a
0000290A  0000              add [bx+si],al
0000290C  0000              add [bx+si],al
0000290E  0000              add [bx+si],al
00002910  660300            add eax,[bx+si]
00002913  0000              add [bx+si],al
00002915  0000              add [bx+si],al
00002917  0000              add [bx+si],al
00002919  0000              add [bx+si],al
0000291B  0000              add [bx+si],al
0000291D  0000              add [bx+si],al
0000291F  0001              add [bx+di],al
00002921  0000              add [bx+si],al
00002923  0000              add [bx+si],al
00002925  0000              add [bx+si],al
00002927  0000              add [bx+si],al
00002929  0000              add [bx+si],al
0000292B  0000              add [bx+si],al
0000292D  0000              add [bx+si],al
0000292F  001E0100          add [0x1],bl
00002933  0001              add [bx+di],al
00002935  0000              add [bx+si],al
00002937  0000              add [bx+si],al
00002939  0000              add [bx+si],al
0000293B  0000              add [bx+si],al
0000293D  0000              add [bx+si],al
0000293F  0000              add [bx+si],al
00002941  0000              add [bx+si],al
00002943  0000              add [bx+si],al
00002945  0000              add [bx+si],al
00002947  00D7              add bh,dl
00002949  1300              adc ax,[bx+si]
0000294B  0000              add [bx+si],al
0000294D  0000              add [bx+si],al
0000294F  0008              add [bx+si],cl
00002951  0100              add [bx+si],ax
00002953  0000              add [bx+si],al
00002955  0000              add [bx+si],al
00002957  0000              add [bx+si],al
00002959  0000              add [bx+si],al
0000295B  0000              add [bx+si],al
0000295D  0000              add [bx+si],al
0000295F  0001              add [bx+di],al
00002961  0000              add [bx+si],al
00002963  0000              add [bx+si],al
00002965  0000              add [bx+si],al
00002967  0000              add [bx+si],al
00002969  0000              add [bx+si],al
0000296B  0000              add [bx+si],al
0000296D  0000              add [bx+si],al
0000296F  002C              add [si],ch
00002971  0100              add [bx+si],ax
00002973  0001              add [bx+di],al
00002975  0000              add [bx+si],al
00002977  0000              add [bx+si],al
00002979  0000              add [bx+si],al
0000297B  0000              add [bx+si],al
0000297D  0000              add [bx+si],al
0000297F  0000              add [bx+si],al
00002981  0000              add [bx+si],al
00002983  0000              add [bx+si],al
00002985  0000              add [bx+si],al
00002987  00DF              add bh,bl
00002989  1400              adc al,0x0
0000298B  0000              add [bx+si],al
0000298D  0000              add [bx+si],al
0000298F  00D2              add dl,dl
00002991  0000              add [bx+si],al
00002993  0000              add [bx+si],al
00002995  0000              add [bx+si],al
00002997  0000              add [bx+si],al
00002999  0000              add [bx+si],al
0000299B  0000              add [bx+si],al
0000299D  0000              add [bx+si],al
0000299F  0001              add [bx+di],al
000029A1  0000              add [bx+si],al
000029A3  0000              add [bx+si],al
000029A5  0000              add [bx+si],al
000029A7  0000              add [bx+si],al
000029A9  0000              add [bx+si],al
000029AB  0000              add [bx+si],al
000029AD  0000              add [bx+si],al
000029AF  0038              add [bx+si],bh
000029B1  0100              add [bx+si],ax
000029B3  0001              add [bx+di],al
000029B5  0000              add [bx+si],al
000029B7  0030              add [bx+si],dh
000029B9  0000              add [bx+si],al
000029BB  0000              add [bx+si],al
000029BD  0000              add [bx+si],al
000029BF  0000              add [bx+si],al
000029C1  0000              add [bx+si],al
000029C3  0000              add [bx+si],al
000029C5  0000              add [bx+si],al
000029C7  00B11500          add [bx+di+0x15],dh
000029CB  0000              add [bx+si],al
000029CD  0000              add [bx+si],al
000029CF  00960200          add [bp+0x2],dl
000029D3  0000              add [bx+si],al
000029D5  0000              add [bx+si],al
000029D7  0000              add [bx+si],al
000029D9  0000              add [bx+si],al
000029DB  0000              add [bx+si],al
000029DD  0000              add [bx+si],al
000029DF  0001              add [bx+di],al
000029E1  0000              add [bx+si],al
000029E3  0000              add [bx+si],al
000029E5  0000              add [bx+si],al
000029E7  0001              add [bx+di],al
000029E9  0000              add [bx+si],al
000029EB  0000              add [bx+si],al
000029ED  0000              add [bx+si],al
000029EF  0001              add [bx+di],al
000029F1  0000              add [bx+si],al
000029F3  0002              add [bp+si],al
000029F5  0000              add [bx+si],al
000029F7  0000              add [bx+si],al
000029F9  0000              add [bx+si],al
000029FB  0000              add [bx+si],al
000029FD  0000              add [bx+si],al
000029FF  0000              add [bx+si],al
00002A01  0000              add [bx+si],al
00002A03  0000              add [bx+si],al
00002A05  0000              add [bx+si],al
00002A07  004818            add [bx+si+0x18],cl
00002A0A  0000              add [bx+si],al
00002A0C  0000              add [bx+si],al
00002A0E  0000              add [bx+si],al
00002A10  90                nop
00002A11  06                push es
00002A12  0000              add [bx+si],al
00002A14  0000              add [bx+si],al
00002A16  0000              add [bx+si],al
00002A18  2000              and [bx+si],al
00002A1A  0000              add [bx+si],al
00002A1C  3100              xor [bx+si],ax
00002A1E  0000              add [bx+si],al
00002A20  0800              or [bx+si],al
00002A22  0000              add [bx+si],al
00002A24  0000              add [bx+si],al
00002A26  0000              add [bx+si],al
00002A28  1800              sbb [bx+si],al
00002A2A  0000              add [bx+si],al
00002A2C  0000              add [bx+si],al
00002A2E  0000              add [bx+si],al
00002A30  0900              or [bx+si],ax
00002A32  0000              add [bx+si],al
00002A34  0300              add ax,[bx+si]
00002A36  0000              add [bx+si],al
00002A38  0000              add [bx+si],al
00002A3A  0000              add [bx+si],al
00002A3C  0000              add [bx+si],al
00002A3E  0000              add [bx+si],al
00002A40  0000              add [bx+si],al
00002A42  0000              add [bx+si],al
00002A44  0000              add [bx+si],al
00002A46  0000              add [bx+si],al
00002A48  D81E0000          fcomp dword [0x0]
00002A4C  0000              add [bx+si],al
00002A4E  0000              add [bx+si],al
00002A50  1402              adc al,0x2
00002A52  0000              add [bx+si],al
00002A54  0000              add [bx+si],al
00002A56  0000              add [bx+si],al
00002A58  0000              add [bx+si],al
00002A5A  0000              add [bx+si],al
00002A5C  0000              add [bx+si],al
00002A5E  0000              add [bx+si],al
00002A60  0100              add [bx+si],ax
00002A62  0000              add [bx+si],al
00002A64  0000              add [bx+si],al
00002A66  0000              add [bx+si],al
00002A68  0000              add [bx+si],al
00002A6A  0000              add [bx+si],al
00002A6C  0000              add [bx+si],al
00002A6E  0000              add [bx+si],al
00002A70  1100              adc [bx+si],ax
00002A72  0000              add [bx+si],al
00002A74  0300              add ax,[bx+si]
00002A76  0000              add [bx+si],al
00002A78  0000              add [bx+si],al
00002A7A  0000              add [bx+si],al
00002A7C  0000              add [bx+si],al
00002A7E  0000              add [bx+si],al
00002A80  0000              add [bx+si],al
00002A82  0000              add [bx+si],al
00002A84  0000              add [bx+si],al
00002A86  0000              add [bx+si],al
00002A88  EC                in al,dx
00002A89  2000              and [bx+si],al
00002A8B  0000              add [bx+si],al
00002A8D  0000              add [bx+si],al
00002A8F  004301            add [bp+di+0x1],al
00002A92  0000              add [bx+si],al
00002A94  0000              add [bx+si],al
00002A96  0000              add [bx+si],al
00002A98  0000              add [bx+si],al
00002A9A  0000              add [bx+si],al
00002A9C  0000              add [bx+si],al
00002A9E  0000              add [bx+si],al
00002AA0  0100              add [bx+si],ax
00002AA2  0000              add [bx+si],al
00002AA4  0000              add [bx+si],al
00002AA6  0000              add [bx+si],al
00002AA8  0000              add [bx+si],al
00002AAA  0000              add [bx+si],al
00002AAC  0000              add [bx+si],al
00002AAE  0000              add [bx+si],al
